TMS320C6x COFF Assembler         Version 4.10     Wed May 08 01:13:19 2024
Copyright (c) 1996-2001 Texas Instruments Incorporated
temp\main.asm                                                        PAGE    1

       1                    ;******************************************************************************
       2                    ;* TMS320C6x ANSI C Codegen                                      Version 4.10 *
       3                    ;* Date/Time created: Wed May 08 01:13:19 2024                                *
       4                    ;******************************************************************************
       5                    
       6                    ;******************************************************************************
       7                    ;* GLOBAL FILE PARAMETERS                                                     *
       8                    ;*                                                                            *
       9                    ;*   Architecture      : TMS320C670x                                          *
      10                    ;*   Optimization      : Disabled                                             *
      11                    ;*   Optimizing for    : Compile time, Ease of Development                    *
      12                    ;*                       Based on options: no -o, no -ms                      *
      13                    ;*   Endian            : Little                                               *
      14                    ;*   Interrupt Thrshld : Disabled                                             *
      15                    ;*   Memory Model      : Large                                                *
      16                    ;*   Calls to RTS      : Far                                                  *
      17                    ;*   Pipelining        : Disabled                                             *
      18                    ;*   Memory Aliases    : Presume are aliases (pessimistic)                    *
      19                    ;*   Debug Info        : No Debug Info                                        *
      20                    ;*                                                                            *
      21                    ;******************************************************************************
      22                    
      23                            .asg    A15, FP
      24                            .asg    B14, DP
      25                            .asg    B15, SP
      26                            .global $bss
      27                    
      28                            .global _PWMD
      29 00000000           _PWMD:  .usect  .far,4,4
      30                            .global _PWMH
      31 00000004           _PWMH:  .usect  .far,4,4
      32                            .global _PWML
      33 00000008           _PWML:  .usect  .far,4,4
      34                    ;       acp6x -q -D_FAR_RTS=1 --large_model=3 --version=6701 -m --i_output_file C:\Users\hge42\AppData
      35 00000000                   .sect   ".text"
      36                            .global _InitEXINTF
      37                    
      38                    ;******************************************************************************
      39                    ;* FUNCTION NAME: _InitEXINTF                                                 *
      40                    ;*                                                                            *
      41                    ;*   Regs Modified     : A0,A3,A4,B4,B5,B6                                    *
      42                    ;*   Regs Used         : A0,A3,A4,B3,B4,B5,B6                                 *
      43                    ;*   Local Frame Size  : 0 Args + 0 Auto + 0 Save = 0 byte                    *
      44                    ;******************************************************************************
      45 00000000           _InitEXINTF:
      46                    ;** --------------------------------------------------------------------------*
      47 00000000 000008C0             ZERO    .D1     A0                ; |18| 
      48 00000004 0000C068             MVKH    .S1     0x1800000,A0      ; |18| 
      49 00000008 02000264             LDW     .D1T1   *A0,A4            ; |18| 
      50 0000000c 0280042A             MVKL    .S2     0x1800008,B5      ; |21| 
      51 00000010 030290AA             MVKL    .S2     0x21520521,B6     ; |33| 
      52 00000014 000C0362             B       .S2     B3                ; |43| 
      53                    
      54 00000018 0200082B             MVKL    .S2     0x1800010,B4      ; |33| 
      55 0000001c 018190A8  ||         MVKL    .S1     0xd00321,A3       ; |21| 
TMS320C6x COFF Assembler         Version 4.10     Wed May 08 01:13:19 2024
Copyright (c) 1996-2001 Texas Instruments Incorporated
temp\main.asm                                                        PAGE    2

      56                    
      57 00000020 021065C9             CLR     .S1     A4,3,5,A4         ; |18| 
      58 00000024 0280C06A  ||         MVKH    .S2     0x1800008,B5      ; |21| 
      59                    
      60 00000028 02000275             STW     .D1T1   A4,*A0            ; |18| 
      61 0000002c 0310A96B  ||         MVKH    .S2     0x21520521,B6     ; |33| 
      62 00000030 01806868  ||         MVKH    .S1     0xd00321,A3       ; |21| 
      63                    
      64 00000034 019402F5             STW     .D2T1   A3,*B5            ; |21| 
      65 00000038 0200C06A  ||         MVKH    .S2     0x1800010,B4      ; |33| 
      66                    
      67 0000003c 031002F6             STW     .D2T2   B6,*B4            ; |33| 
      68                               ; BRANCH OCCURS                   ; |43| 
      69                    
      70                    
      71 00000040                   .sect   ".text"
      72                            .global _InitTimer
      73                    
      74                    ;******************************************************************************
      75                    ;* FUNCTION NAME: _InitTimer                                                  *
      76                    ;*                                                                            *
      77                    ;*   Regs Modified     : A0,A3,B4,B5                                          *
      78                    ;*   Regs Used         : A0,A3,B3,B4,B5                                       *
      79                    ;*   Local Frame Size  : 0 Args + 0 Auto + 0 Save = 0 byte                    *
      80                    ;******************************************************************************
      81 00000040           _InitTimer:
      82                    ;** --------------------------------------------------------------------------*
      83 00000040 020008C2             ZERO    .D2     B4                ; |48| 
      84 00000044 0200CA6A             MVKH    .S2     0x1940000,B4      ; |48| 
      85 00000048 029002E6             LDW     .D2T2   *B4,B5            ; |48| 
      86 0000004c 00000228             MVKL    .S1     0x1940004,A0      ; |51| 
      87 00000050 0000CA68             MVKH    .S1     0x1940004,A0      ; |51| 
      88 00000054 018008C0             ZERO    .D1     A3                ; |54| 
      89 00000058 0180CA68             MVKH    .S1     0x1940000,A3      ; |54| 
      90 0000005c 0295098A             SET     .S2     B5,8,9,B5         ; |48| 
      91                    
      92 00000060 0227102B             MVK     .S2     20000,B4          ; |51| 
      93 00000064 029002F6  ||         STW     .D2T2   B5,*B4            ; |48| 
      94                    
      95 00000068 02000276             STW     .D1T2   B4,*A0            ; |51| 
      96 0000006c 000C0264             LDW     .D1T1   *A3,A0            ; |54| 
      97 00000070 000C0362             B       .S2     B3                ; |55| 
      98 00000074 00004000             NOP             3
      99 00000078 0000C788             SET     .S1     A0,6,7,A0         ; |54| 
     100 0000007c 000C0274             STW     .D1T1   A0,*A3            ; |54| 
     101                               ; BRANCH OCCURS                   ; |55| 
     102                    
     103                    
     104 00000080                   .sect   ".text"
     105                            .global _InitINT
     106                    
     107                    ;******************************************************************************
     108                    ;* FUNCTION NAME: _InitINT                                                    *
     109                    ;*                                                                            *
     110                    ;*   Regs Modified     : A0,B4                                                *
TMS320C6x COFF Assembler         Version 4.10     Wed May 08 01:13:19 2024
Copyright (c) 1996-2001 Texas Instruments Incorporated
temp\main.asm                                                        PAGE    3

     111                    ;*   Regs Used         : A0,B3,B4                                             *
     112                    ;*   Local Frame Size  : 0 Args + 0 Auto + 0 Save = 0 byte                    *
     113                    ;******************************************************************************
     114 00000080           _InitINT:
     115                    ;** --------------------------------------------------------------------------*
     116 00000080 021003E2             MVC     .S2     IER,B4            ; |60| 
     117 00000084 00202128             MVK     .S1     16450,A0          ; |60| 
     118 00000088 020096E2             OR      .S2X    A0,B4,B4          ; |60| 
     119 0000008c 021003A2             MVC     .S2     B4,IER            ; |60| 
     120 00000090 000C0362             B       .S2     B3                ; |61| 
     121 00000094 00008000             NOP             5
     122                               ; BRANCH OCCURS                   ; |61| 
     123                    
     124                    
     125 00000098                   .sect   ".text"
     126                            .global _GIE
     127                    
     128                    ;******************************************************************************
     129                    ;* FUNCTION NAME: _GIE                                                        *
     130                    ;*                                                                            *
     131                    ;*   Regs Modified     : B4                                                   *
     132                    ;*   Regs Used         : B3,B4                                                *
     133                    ;*   Local Frame Size  : 0 Args + 0 Auto + 0 Save = 0 byte                    *
     134                    ;******************************************************************************
     135 00000098           _GIE:
     136                    ;** --------------------------------------------------------------------------*
     137 00000098 020403E2             MVC     .S2     CSR,B4            ; |66| 
     138 0000009c 021026A2             OR      .S2     1,B4,B4           ; |66| 
     139 000000a0 009003A2             MVC     .S2     B4,CSR            ; |66| 
     140 000000a4 000C0362             B       .S2     B3                ; |67| 
     141 000000a8 00008000             NOP             5
     142                               ; BRANCH OCCURS                   ; |67| 
     143                    
     144                    
     145 000000ac                   .sect   ".text"
     146                            .global _delay_us
     147                    
     148                    ;******************************************************************************
     149                    ;* FUNCTION NAME: _delay_us                                                   *
     150                    ;*                                                                            *
     151                    ;*   Regs Modified     : B0,B4,B5,B6,SP                                       *
     152                    ;*   Regs Used         : A4,B0,B3,B4,B5,B6,SP                                 *
     153                    ;*   Local Frame Size  : 0 Args + 4 Auto + 0 Save = 4 byte                    *
     154                    ;******************************************************************************
     155 000000ac           _delay_us:
     156                    ;** --------------------------------------------------------------------------*
     157 000000ac 021011A2             MV      .S2X    A4,B4             ; |71| 
     158 000000b0 02908CA2             SHL     .S2     B4,4,B5           ; |74| 
     159                    
     160 000000b4 020425E3             ZERO    .S2     B4                ; |74| 
     161 000000b8 02949AC2  ||         SUBAH   .D2     B5,B4,B5          ; |74| 
     162                    
     163 000000bc 00148BFA             CMPLTU  .L2     B4,B5,B0          ; |74| 
     164 000000c0 30000710     [!B0]   B       .S1     L2                ; |74| 
     165 000000c4 07BD09C2             SUB     .D2     SP,8,SP           ; |71| 
TMS320C6x COFF Assembler         Version 4.10     Wed May 08 01:13:19 2024
Copyright (c) 1996-2001 Texas Instruments Incorporated
temp\main.asm                                                        PAGE    4

     166 000000c8 023C22F4             STW     .D2T1   A4,*+SP(4)        ; |71| 
     167 000000cc 22BC22E6     [ B0]   LDW     .D2T2   *+SP(4),B5        ; |74| 
     168 000000d0 00002000             NOP             2
     169                               ; BRANCH OCCURS                   ; |74| 
     170                    ;** --------------------------------------------------------------------------*
     171 000000d4 00002000             NOP             2
     172                    ;*----------------------------------------------------------------------------*
     173                    ;*   SOFTWARE PIPELINE INFORMATION
     174                    ;*      Disqualified loop: software pipelining disabled
     175                    ;*----------------------------------------------------------------------------*
     176 000000d8           L1:    
     177 000000d8 03148CA2             SHL     .S2     B5,4,B6           ; |74| 
     178                    
     179 000000e0 0298BAC3             SUBAH   .D2     B6,B5,B5          ; |74| 
     180 000000e4 021021A2  ||         ADD     .S2     1,B4,B4           ; |74| 
     181                    
     182 000000e8 00148BFA             CMPLTU  .L2     B4,B5,B0          ; |74| 
     183 000000ec 2FFFFF10     [ B0]   B       .S1     L1                ; |74| 
     184 000000f0 22BC22E6     [ B0]   LDW     .D2T2   *+SP(4),B5        ; |74| 
     185 000000f4 00006000             NOP             4
     186                               ; BRANCH OCCURS                   ; |74| 
     187                    ;** --------------------------------------------------------------------------*
     188 000000f8           L2:    
     189 000000f8 000C0362             B       .S2     B3                ; |75| 
     190 000000fc 07BD0942             ADD     .D2     8,SP,SP           ; |75| 
     191 00000100 00006000             NOP             4
     192                               ; BRANCH OCCURS                   ; |75| 
     193                    
     194                    
     195 00000104                   .sect   ".text"
     196                            .global _delay_ms
     197                    
     198                    ;******************************************************************************
     199                    ;* FUNCTION NAME: _delay_ms                                                   *
     200                    ;*                                                                            *
     201                    ;*   Regs Modified     : A4,B0,B3,B4,B5,B6,B7,B9,SP                           *
     202                    ;*   Regs Used         : A4,B0,B3,B4,B5,B6,B7,B9,SP                           *
     203                    ;*   Local Frame Size  : 0 Args + 4 Auto + 0 Save = 4 byte                    *
     204                    ;******************************************************************************
     205 00000104           _delay_ms:
     206                    ;** --------------------------------------------------------------------------*
     207 00000104 038008C2             ZERO    .D2     B7                ; |82| 
     208 00000108 0010FBFA             CMPLTU  .L2X    B7,A4,B0
     209 0000010c 30000B10     [!B0]   B       .S1     L4                ; |82| 
     210 00000110 07BD09C2             SUB     .D2     SP,8,SP           ; |79| 
     211 00000114 023C22F4             STW     .D2T1   A4,*+SP(4)        ; |79| 
     212 00000118 048C005A             MV      .L2     B3,B9             ; |79| 
     213 0000011c 2200562A'    [ B0]   MVKL    .S2     _delay_us,B4      ; |83| 
     214 00000120 2200006A'    [ B0]   MVKH    .S2     _delay_us,B4      ; |83| 
     215                               ; BRANCH OCCURS                   ; |82| 
     216                    ;*----------------------------------------------------------------------------*
     217                    ;*   SOFTWARE PIPELINE INFORMATION
     218                    ;*      Disqualified loop: software pipelining disabled
     219                    ;*----------------------------------------------------------------------------*
     220 00000124           L3:    
TMS320C6x COFF Assembler         Version 4.10     Wed May 08 01:13:19 2024
Copyright (c) 1996-2001 Texas Instruments Incorporated
temp\main.asm                                                        PAGE    5

     221 00000124 00100362             B       .S2     B4                ; |83| 
     222 00000128 01809C2A'            MVKL    .S2     RL0,B3            ; |83| 
     223 0000012c 0180006A'            MVKH    .S2     RL0,B3            ; |83| 
     224 00000130 0201F428             MVK     .S1     0x3e8,A4          ; |83| 
     225 00000134 00002000             NOP             2
     226 00000138           RL0:       ; CALL OCCURS                     ; |83| 
     227 00000138 023C22E6             LDW     .D2T2   *+SP(4),B4        ; |84| 
     228 0000013c 039C2942             ADD     .D2     1,B7,B7           ; |84| 
     229 00000140 00004000             NOP             3
     230 00000144 0010EBFA             CMPLTU  .L2     B7,B4,B0          ; |84| 
     231 00000148 2FFFFC90     [ B0]   B       .S1     L3                ; |84| 
     232 0000014c 2200562A'    [ B0]   MVKL    .S2     _delay_us,B4      ; |83| 
     233 00000150 2200006A'    [ B0]   MVKH    .S2     _delay_us,B4      ; |83| 
     234 00000154 00004000             NOP             3
     235                               ; BRANCH OCCURS                   ; |84| 
     236                    ;** --------------------------------------------------------------------------*
     237 00000158           L4:    
     238 00000158 00240362             B       .S2     B9                ; |85| 
     239 0000015c 07BD0942             ADD     .D2     8,SP,SP           ; |85| 
     240 00000160 00006000             NOP             4
     241                               ; BRANCH OCCURS                   ; |85| 
     242                    
     243                    
     244 00000164                   .sect   ".text"
     245                            .global _WaitTFlag
     246                    
     247                    ;******************************************************************************
     248                    ;* FUNCTION NAME: _WaitTFlag                                                  *
     249                    ;*                                                                            *
     250                    ;*   Regs Modified     : A0,A1,A3                                             *
     251                    ;*   Regs Used         : A0,A1,A3,B3                                          *
     252                    ;*   Local Frame Size  : 0 Args + 0 Auto + 0 Save = 0 byte                    *
     253                    ;******************************************************************************
     254 00000164           _WaitTFlag:
     255                    ;** --------------------------------------------------------------------------*
     256 00000164 00000028!            MVKL    .S1     _TFlag,A0         ; |90| 
     257 00000168 00000068!            MVKH    .S1     _TFlag,A0         ; |90| 
     258 0000016c 00800264             LDW     .D1T1   *A0,A1            ; |90| 
     259 00000170 00006000             NOP             4
     260 00000174 80000810     [ A1]   B       .S1     L6                ; |90| 
     261 00000178 90000028!    [!A1]   MVKL    .S1     _TFlag,A0         ; |90| 
     262 0000017c 90000068!    [!A1]   MVKH    .S1     _TFlag,A0         ; |90| 
     263 00000180 90800264     [!A1]   LDW     .D1T1   *A0,A1            ; |90| 
     264 00000184 00002000             NOP             2
     265                               ; BRANCH OCCURS                   ; |90| 
     266                    ;*----------------------------------------------------------------------------*
     267                    ;*   SOFTWARE PIPELINE INFORMATION
     268                    ;*      Disqualified loop: software pipelining disabled
     269                    ;*----------------------------------------------------------------------------*
     270 00000188           L5:    
     271 00000188 00002000             NOP             2
     272 0000018c 90000110     [!A1]   B       .S1     L5                ; |90| 
     273 00000190 90000028!    [!A1]   MVKL    .S1     _TFlag,A0         ; |90| 
     274 00000194 90000068!    [!A1]   MVKH    .S1     _TFlag,A0         ; |90| 
     275 00000198 90800264     [!A1]   LDW     .D1T1   *A0,A1            ; |90| 
TMS320C6x COFF Assembler         Version 4.10     Wed May 08 01:13:19 2024
Copyright (c) 1996-2001 Texas Instruments Incorporated
temp\main.asm                                                        PAGE    6

     276 0000019c 00002000             NOP             2
     277                               ; BRANCH OCCURS                   ; |90| 
     278                    ;** --------------------------------------------------------------------------*
     279 000001a0           L6:    
     280 000001a0 000C0362             B       .S2     B3                ; |92| 
     281 000001a4 00000028!            MVKL    .S1     _TFlag,A0         ; |91| 
     282 000001a8 00000068!            MVKH    .S1     _TFlag,A0         ; |91| 
     283 000001ac 018008C0             ZERO    .D1     A3                ; |91| 
     284 000001b0 01800274             STW     .D1T1   A3,*A0            ; |91| 
     285 000001b4 00000000             NOP             1
     286                               ; BRANCH OCCURS                   ; |92| 
     287                    
     288                    
     289 000001b8                   .sect   ".text"
     290                            .global _WaitTFlagCnt
     291                    
     292                    ;******************************************************************************
     293                    ;* FUNCTION NAME: _WaitTFlagCnt                                               *
     294                    ;*                                                                            *
     295                    ;*   Regs Modified     : A0,A1,A3,B0,B3,B4,B5,B9,SP                           *
     296                    ;*   Regs Used         : A0,A1,A3,A4,B0,B3,B4,B5,B9,SP                        *
     297                    ;*   Local Frame Size  : 0 Args + 8 Auto + 0 Save = 8 byte                    *
     298                    ;******************************************************************************
     299 000001b8           _WaitTFlagCnt:
     300                    ;** --------------------------------------------------------------------------*
     301                    
     302 000001b8 07BD09C3             SUB     .D2     SP,8,SP           ; |96| 
     303 000001bc 00000028! ||         MVKL    .S1     _TFlag,A0         ; |99| 
     304                    
     305 000001c0 023C22F5             STW     .D2T1   A4,*+SP(4)        ; |96| 
     306 000001c4 00000069! ||         MVKH    .S1     _TFlag,A0         ; |99| 
     307 000001c8 018428C0  ||         ZERO    .D1     A3                ; |99| 
     308                    
     309 000001cc 01800274             STW     .D1T1   A3,*A0            ; |99| 
     310 000001d0 02BC22E6             LDW     .D2T2   *+SP(4),B5        ; |101| 
     311 000001d4 020008C2             ZERO    .D2     B4                ; |101| 
     312 000001d8 023C42F6             STW     .D2T2   B4,*+SP(8)        ; |101| 
     313 000001dc 048C01A2             MV      .S2     B3,B9             ; |96| 
     314 000001e0 00000000             NOP             1
     315 000001e4 00148BFA             CMPLTU  .L2     B4,B5,B0          ; |101| 
     316 000001e8 30000A10     [!B0]   B       .S1     L8                ; |101| 
     317 000001ec 2000B228'    [ B0]   MVKL    .S1     _WaitTFlag,A0     ; |102| 
     318 000001f0 20000068'    [ B0]   MVKH    .S1     _WaitTFlag,A0     ; |102| 
     319 000001f4 00004000             NOP             3
     320                               ; BRANCH OCCURS                   ; |101| 
     321                    ;*----------------------------------------------------------------------------*
     322                    ;*   SOFTWARE PIPELINE INFORMATION
     323                    ;*      Disqualified loop: software pipelining disabled
     324                    ;*----------------------------------------------------------------------------*
     325 000001f8           L7:    
     326 000001f8 00001362             B       .S2X    A0                ; |102| 
     327 000001fc 0181042A'            MVKL    .S2     RL2,B3            ; |102| 
     328 00000200 0180006A'            MVKH    .S2     RL2,B3            ; |102| 
     329 00000204 00004000             NOP             3
     330 00000208           RL2:       ; CALL OCCURS                     ; |102| 
TMS320C6x COFF Assembler         Version 4.10     Wed May 08 01:13:19 2024
Copyright (c) 1996-2001 Texas Instruments Incorporated
temp\main.asm                                                        PAGE    7

     331 00000208 023C42E6             LDW     .D2T2   *+SP(8),B4        ; |103| 
     332 0000020c 02BC22E6             LDW     .D2T2   *+SP(4),B5        ; |103| 
     333 00000210 00004000             NOP             3
     334 00000214 02102942             ADD     .D2     1,B4,B4           ; |103| 
     335 00000218 00148BFA             CMPLTU  .L2     B4,B5,B0          ; |103| 
     336 0000021c 2FFFFF10     [ B0]   B       .S1     L7                ; |103| 
     337 00000220 023C42F6             STW     .D2T2   B4,*+SP(8)        ; |103| 
     338 00000224 2000B228'    [ B0]   MVKL    .S1     _WaitTFlag,A0     ; |102| 
     339 00000228 20000068'    [ B0]   MVKH    .S1     _WaitTFlag,A0     ; |102| 
     340 0000022c 00002000             NOP             2
     341                               ; BRANCH OCCURS                   ; |103| 
     342                    ;** --------------------------------------------------------------------------*
     343 00000230           L8:    
     344 00000230 00240362             B       .S2     B9                ; |104| 
     345 00000234 07BD0942             ADD     .D2     8,SP,SP           ; |104| 
     346 00000238 00006000             NOP             4
     347                               ; BRANCH OCCURS                   ; |104| 
     348                    
     349                    
     350 0000023c                   .sect   ".text"
     351                            .global _PWMOut
     352                    
     353                    ;******************************************************************************
     354                    ;* FUNCTION NAME: _PWMOut                                                     *
     355                    ;*                                                                            *
     356                    ;*   Regs Modified     : A0,A1,A2,A3,A4,A5,A6,A7,A8,A9,B0,B1,B2,B3,B4,B5,B6,  *
     357                    ;*                           B7,B8,B9,SP                                      *
     358                    ;*   Regs Used         : A0,A1,A2,A3,A4,A5,A6,A7,A8,A9,B0,B1,B2,B3,B4,B5,B6,  *
     359                    ;*                           B7,B8,B9,SP                                      *
     360                    ;*   Local Frame Size  : 0 Args + 8 Auto + 4 Save = 12 byte                   *
     361                    ;******************************************************************************
     362 0000023c           _PWMOut:
     363                    ;** --------------------------------------------------------------------------*
     364 0000023c 000008C0             ZERO    .D1     A0                ; |115| 
     365                    
     366 00000240 00228069             MVKH    .S1     0x45000000,A0     ; |115| 
     367 00000244 021011A2  ||         MV      .S2X    A4,B4             ; |111| 
     368                    
     369 00000248 02009E02             MPYSP   .M2X    A0,B4,B4          ; |115| 
     370 0000024c 0400002A!            MVKL    .S2     __divd,B8         ; |115| 
     371 00000250 0400006A!            MVKH    .S2     __divd,B8         ; |115| 
     372 00000254 00200362             B       .S2     B8                ; |115| 
     373 00000258 031000A2             SPDP    .S2     B4,B7:B6          ; |115| 
     374 0000025c 028000FA             ZERO    .L2     B5                ; |115| 
     375                    
     376 00000260 01BC94F7             STW     .D2T2   B3,*SP--(16)      ; |111| 
     377 00000264 0181402A' ||         MVKL    .S2     RL4,B3            ; |115| 
     378                    
     379 00000268 029C11A1             MV      .S1X    B7,A5             ; |115| 
     380 0000026c 02A02CEA  ||         MVKH    .S2     0x40590000,B5     ; |115| 
     381                    
     382 00000270 020420FB             ZERO    .L2     B4                ; |115| 
     383 00000274 021811A1  ||         MV      .S1X    B6,A4             ; |115| 
     384 00000278 023C22F5  ||         STW     .D2T1   A4,*+SP(4)        ; |111| 
     385 0000027c 0180006A' ||         MVKH    .S2     RL4,B3            ; |115| 
TMS320C6x COFF Assembler         Version 4.10     Wed May 08 01:13:19 2024
Copyright (c) 1996-2001 Texas Instruments Incorporated
temp\main.asm                                                        PAGE    8

     386                    
     387 00000280           RL4:       ; CALL OCCURS                     ; |115| 
     388 00000280 00148138             DPSP    .L1     A5:A4,A0          ; |115| 
     389 00000284 01800428-            MVKL    .S1     _PWML,A3          ; |120| 
     390 00000288 01800068-            MVKH    .S1     _PWML,A3          ; |120| 
     391 0000028c 00000000             NOP             1
     392 00000290 020011A2             MV      .S2X    A0,B4             ; |115| 
     393 00000294 0290017A             SPTRUNC .L2     B4,B5             ; |118| 
     394 00000298 003C42F4             STW     .D2T1   A0,*+SP(8)        ; |115| 
     395 0000029c 00000028-            MVKL    .S1     _PWMD,A0          ; |118| 
     396                    
     397 000002a0 0200002B-            MVKL    .S2     _PWMD,B4          ; |119| 
     398 000002a4 00000068- ||         MVKH    .S1     _PWMD,A0          ; |118| 
     399                    
     400 000002a8 0200006B-            MVKH    .S2     _PWMD,B4          ; |119| 
     401 000002ac 02800276  ||         STW     .D1T2   B5,*A0            ; |118| 
     402                    
     403 000002b0 029002E6             LDW     .D2T2   *B4,B5            ; |119| 
     404 000002b4 00000228-            MVKL    .S1     _PWMH,A0          ; |119| 
     405 000002b8 00000068-            MVKH    .S1     _PWMH,A0          ; |119| 
     406 000002bc 0200002A-            MVKL    .S2     _PWMD,B4          ; |120| 
     407 000002c0 0200006A-            MVKH    .S2     _PWMD,B4          ; |120| 
     408 000002c4 02840052             ADDK    .S2     2048,B5           ; |119| 
     409 000002c8 02800276             STW     .D1T2   B5,*A0            ; |119| 
     410 000002cc 021002E6             LDW     .D2T2   *B4,B4            ; |120| 
     411 000002d0 00040028             MVK     .S1     2048,A0           ; |120| 
     412 000002d4 00004000             NOP             3
     413 000002d8 001010F8             SUB     .L1X    A0,B4,A0          ; |120| 
     414 000002dc 000C0274             STW     .D1T1   A0,*A3            ; |120| 
     415 000002e0 01BC92E6             LDW     .D2T2   *++SP(16),B3      ; |121| 
     416 000002e4 00006000             NOP             4
     417 000002e8 000C0362             B       .S2     B3                ; |121| 
     418 000002ec 00008000             NOP             5
     419                               ; BRANCH OCCURS                   ; |121| 
     420                    
     421                    
     422 000002f0                   .sect   ".text"
     423                            .global _BLDCDrive
     424                    
     425                    ;******************************************************************************
     426                    ;* FUNCTION NAME: _BLDCDrive                                                  *
     427                    ;*                                                                            *
     428                    ;*   Regs Modified     : A0,A1,A2,A3,A4,A5,A6,A7,A8,A9,B0,B1,B2,B3,B4,B5,B6,  *
     429                    ;*                           B7,B8,B9,SP                                      *
     430                    ;*   Regs Used         : A0,A1,A2,A3,A4,A5,A6,A7,A8,A9,B0,B1,B2,B3,B4,B5,B6,  *
     431                    ;*                           B7,B8,B9,SP                                      *
     432                    ;*   Local Frame Size  : 0 Args + 16 Auto + 4 Save = 20 byte                  *
     433                    ;******************************************************************************
     434 000002f0           _BLDCDrive:
     435                    ;** --------------------------------------------------------------------------*
     436 000002f0 02011E2A'            MVKL    .S2     _PWMOut,B4        ; |130| 
     437 000002f4 0200006A'            MVKH    .S2     _PWMOut,B4        ; |130| 
     438 000002f8 00100362             B       .S2     B4                ; |130| 
     439 000002fc 01BCD4F6             STW     .D2T2   B3,*SP--(24)      ; |124| 
     440 00000300 023C22F4             STW     .D2T1   A4,*+SP(4)        ; |124| 
TMS320C6x COFF Assembler         Version 4.10     Wed May 08 01:13:19 2024
Copyright (c) 1996-2001 Texas Instruments Incorporated
temp\main.asm                                                        PAGE    9

     441 00000304 00000000             NOP             1
     442 00000308 0181882A'            MVKL    .S2     RL6,B3            ; |130| 
     443 0000030c 0180006A'            MVKH    .S2     RL6,B3            ; |130| 
     444 00000310           RL6:       ; CALL OCCURS                     ; |130| 
     445 00000310 00010428             MVKL    .S1     0x2000208,A0      ; |133| 
     446                    
     447 00000314 00010069             MVKH    .S1     0x2000208,A0      ; |133| 
     448 00000318 027FFFAA  ||         MVK     .S2     -1,B4             ; |137| 
     449                    
     450 00000320 023C82F7             STW     .D2T2   B4,*+SP(16)       ; |137| 
     451 00000324 00000264  ||         LDW     .D1T1   *A0,A0            ; |133| 
     452                    
     453 00000328 02BC82E6             LDW     .D2T2   *+SP(16),B5       ; |139| 
     454 0000032c 020008C2             ZERO    .D2     B4
     455 00000330 00000A10             B       .S1     L10               ; |144| 
     456 00000334 030005E2             ZERO    .S2     B6
     457                    
     458 00000338 0000E7A1             AND     .S1     7,A0,A0           ; |133| 
     459 0000033c 023C42F6  ||         STW     .D2T2   B4,*+SP(8)        ; |136| 
     460                    
     461 00000340 0000DA7B             CMPEQ   .L2X    A0,B6,B0
     462 00000344 029421A3  ||         ADD     .S2     1,B5,B5           ; |139| 
     463 00000348 003C62F4  ||         STW     .D2T1   A0,*+SP(12)       ; |133| 
     464                    
     465 0000034c 020011A3             MV      .S2X    A0,B4             ; |139| 
     466 00000350 32BC82F6  || [!B0]   STW     .D2T2   B5,*+SP(16)       ; |139| 
     467                    
     468 00000354 323C42F6     [!B0]   STW     .D2T2   B4,*+SP(8)        ; |140| 
     469                               ; BRANCH OCCURS                   ; |144| 
     470                    ;** --------------------------------------------------------------------------*
     471 00000358           L9:    
     472 00000358 021C02F6             STW     .D2T2   B4,*B7            ; |146| 
     473 0000035c 041802F6             STW     .D2T2   B8,*B6            ; |147| 
     474                    
     475 00000360 00000F91             B       .S1     L11               ; |148| 
     476 00000364 018C0264  ||         LDW     .D1T1   *A3,A3            ; |148| 
     477                    
     478 00000368 00006000             NOP             4
     479 0000036c 01800274             STW     .D1T1   A3,*A0            ; |148| 
     480                               ; BRANCH OCCURS                   ; |148| 
     481                    ;** --------------------------------------------------------------------------*
     482 00000370           L10:    
     483 00000370 00108ADA             CMPGT   .L2     B4,4,B0           ; |148| 
     484 00000374 20001090     [ B0]   B       .S1     L13               ; |148| 
     485                    
     486 00000380 00909A59             CMPEQ   .L1X    B4,4,A1           ; |148| 
     487 00000384 3380502B  || [!B0]   MVKL    .S2     0x20000a0,B7      ; |146| 
     488 00000388 21BCD2E6  || [ B0]   LDW     .D2T2   *++SP(24),B3      ; |162| 
     489                    
     490 0000038c 00006000             NOP             4
     491                               ; BRANCH OCCURS                   ; |148| 
     492                    ;** --------------------------------------------------------------------------*
     493                    
     494 00000390 80000C11     [ A1]   B       .S1     L12               ; |148| 
     495 00000394 03004E2A  ||         MVKL    .S2     0x200009c,B6      ; |147| 
TMS320C6x COFF Assembler         Version 4.10     Wed May 08 01:13:19 2024
Copyright (c) 1996-2001 Texas Instruments Incorporated
temp\main.asm                                                        PAGE   10

     496                    
     497 00000398 0280042A-            MVKL    .S2     _PWML,B5          ; |146| 
     498                    
     499 000003a0 0404002B             MVK     .S2     2048,B8           ; |147| 
     500 000003a4 00004C28  ||         MVKL    .S1     0x2000098,A0      ; |148| 
     501                    
     502 000003a8 0381006B             MVKH    .S2     0x20000a0,B7      ; |146| 
     503 000003ac 01800228- ||         MVKL    .S1     _PWMH,A3          ; |148| 
     504                    
     505 000003b0 00010069             MVKH    .S1     0x2000098,A0      ; |148| 
     506 000003b4 0301006A  ||         MVKH    .S2     0x200009c,B6      ; |147| 
     507                    
     508 000003c0 0280006B-            MVKH    .S2     _PWML,B5          ; |146| 
     509 000003c4 01800069- ||         MVKH    .S1     _PWMH,A3          ; |148| 
     510 000003c8 00102A5B  ||         CMPEQ   .L2     B4,1,B0           ; |148| 
     511 000003cc 81BCD2E6  || [ A1]   LDW     .D2T2   *++SP(24),B3      ; |162| 
     512                    
     513                               ; BRANCH OCCURS                   ; |148| 
     514                    ;** --------------------------------------------------------------------------*
     515 000003d0 2FFFF310     [ B0]   B       .S1     L9                ; |148| 
     516 000003d4 221402E6     [ B0]   LDW     .D2T2   *B5,B4            ; |146| 
     517 000003d8 00006000             NOP             4
     518                               ; BRANCH OCCURS                   ; |148| 
     519                    ;** --------------------------------------------------------------------------*
     520 000003dc           L11:    
     521 000003dc 01BCD2E6             LDW     .D2T2   *++SP(24),B3      ; |162| 
     522                    ;** --------------------------------------------------------------------------*
     523 000003e0           L12:    
     524 000003e0 00006000             NOP             4
     525                    ;** --------------------------------------------------------------------------*
     526 000003e4           L13:    
     527 000003e4 000C0362             B       .S2     B3                ; |162| 
     528 000003e8 00008000             NOP             5
     529                               ; BRANCH OCCURS                   ; |162| 
     530                    
     531                    
     532 000003ec                   .sect   ".text"
     533                            .global _main
     534                    
     535                    ;******************************************************************************
     536                    ;* FUNCTION NAME: _main                                                       *
     537                    ;*                                                                            *
     538                    ;*   Regs Modified     : A0,A1,A2,A3,A4,A5,A6,A7,A8,A9,B0,B1,B2,B3,B4,B5,B6,  *
     539                    ;*                           B7,B8,B9,SP                                      *
     540                    ;*   Regs Used         : A0,A1,A2,A3,A4,A5,A6,A7,A8,A9,B0,B1,B2,B3,B4,B5,B6,  *
     541                    ;*                           B7,B8,B9,SP                                      *
     542                    ;*   Local Frame Size  : 16 Args + 8 Auto + 4 Save = 28 byte                  *
     543                    ;******************************************************************************
     544 000003ec           _main:
     545                    ;** --------------------------------------------------------------------------*
     546 000003ec 00000028'            MVKL    .S1     _InitEXINTF,A0    ; |177| 
     547 000003f0 00000068'            MVKH    .S1     _InitEXINTF,A0    ; |177| 
     548 000003f4 00001362             B       .S2X    A0                ; |177| 
     549 000003f8 01BD14F6             STW     .D2T2   B3,*SP--(32)      ; |173| 
     550 000003fc 0182042A'            MVKL    .S2     RL8,B3            ; |177| 
TMS320C6x COFF Assembler         Version 4.10     Wed May 08 01:13:19 2024
Copyright (c) 1996-2001 Texas Instruments Incorporated
temp\main.asm                                                        PAGE   11

     551 00000400 0180006A'            MVKH    .S2     RL8,B3            ; |177| 
     552 00000404 00002000             NOP             2
     553 00000408           RL8:       ; CALL OCCURS                     ; |177| 
     554 00000408 00002028'            MVKL    .S1     _InitTimer,A0     ; |178| 
     555 0000040c 00000068'            MVKH    .S1     _InitTimer,A0     ; |178| 
     556 00000410 00001362             B       .S2X    A0                ; |178| 
     557 00000414 0182102A'            MVKL    .S2     RL10,B3           ; |178| 
     558 00000418 0180006A'            MVKH    .S2     RL10,B3           ; |178| 
     559 0000041c 00004000             NOP             3
     560 00000420           RL10:      ; CALL OCCURS                     ; |178| 
     561 00000420 0200002A!            MVKL    .S2     _InitUART,B4      ; |179| 
     562 00000424 0200006A!            MVKH    .S2     _InitUART,B4      ; |179| 
     563 00000428 00100362             B       .S2     B4                ; |179| 
     564 0000042c 01821C2A'            MVKL    .S2     RL12,B3           ; |179| 
     565 00000430 0180006A'            MVKH    .S2     RL12,B3           ; |179| 
     566 00000434 00004000             NOP             3
     567 00000438           RL12:      ; CALL OCCURS                     ; |179| 
     568 00000438 00004028'            MVKL    .S1     _InitINT,A0       ; |180| 
     569 0000043c 00000068'            MVKH    .S1     _InitINT,A0       ; |180| 
     570 00000440 00001362             B       .S2X    A0                ; |180| 
     571 00000444 0182282A'            MVKL    .S2     RL14,B3           ; |180| 
     572 00000448 0180006A'            MVKH    .S2     RL14,B3           ; |180| 
     573 0000044c 00004000             NOP             3
     574 00000450           RL14:      ; CALL OCCURS                     ; |180| 
     575 00000450 00000028!            MVKL    .S1     _InitUSBMon,A0    ; |181| 
     576 00000454 00000068!            MVKH    .S1     _InitUSBMon,A0    ; |181| 
     577 00000458 00001362             B       .S2X    A0                ; |181| 
     578 0000045c 0182342A'            MVKL    .S2     RL16,B3           ; |181| 
     579 00000460 0180006A'            MVKH    .S2     RL16,B3           ; |181| 
     580 00000464 00004000             NOP             3
     581 00000468           RL16:      ; CALL OCCURS                     ; |181| 
     582 00000468 00000028!            MVKL    .S1     _sprintf,A0       ; |183| 
     583                    
     584 0000046c 00000069!            MVKH    .S1     _sprintf,A0       ; |183| 
     585 00000470 0280002A+ ||         MVKL    .S2     SL1+0,B5          ; |183| 
     586                    
     587 00000474 00001362             B       .S2X    A0                ; |183| 
     588 00000478 01824A2A'            MVKL    .S2     RL18,B3           ; |183| 
     589 0000047c 0280006A+            MVKH    .S2     SL1+0,B5          ; |183| 
     590 00000480 0200002A!            MVKL    .S2     _tmp_string,B4    ; |183| 
     591 00000484 0200006A!            MVKH    .S2     _tmp_string,B4    ; |183| 
     592                    
     593 00000488 0180006B'            MVKH    .S2     RL18,B3           ; |183| 
     594 0000048c 02BC22F7  ||         STW     .D2T2   B5,*+SP(4)        ; |183| 
     595 00000490 021011A0  ||         MV      .S1X    B4,A4             ; |183| 
     596                    
     597 00000494           RL18:      ; CALL OCCURS                     ; |183| 
     598 00000494 00000028!            MVKL    .S1     _Report,A0        ; |183| 
     599 00000498 00000068!            MVKH    .S1     _Report,A0        ; |183| 
     600 0000049c 00001362             B       .S2X    A0                ; |183| 
     601 000004a0 0182562A'            MVKL    .S2     RL20,B3           ; |183| 
     602 000004a4 0180006A'            MVKH    .S2     RL20,B3           ; |183| 
     603 000004a8 00004000             NOP             3
     604 000004ac           RL20:      ; CALL OCCURS                     ; |183| 
     605 000004ac 0003F428             MVK     .S1     2024,A0           ; |184| 
TMS320C6x COFF Assembler         Version 4.10     Wed May 08 01:13:19 2024
Copyright (c) 1996-2001 Texas Instruments Incorporated
temp\main.asm                                                        PAGE   12

     606                    
     607 000004b0 00000029!            MVKL    .S1     _sprintf,A0       ; |184| 
     608 000004b4 003C42F4  ||         STW     .D2T1   A0,*+SP(8)        ; |184| 
     609                    
     610 000004b8 00000069!            MVKH    .S1     _sprintf,A0       ; |184| 
     611 000004bc 0280002A! ||         MVKL    .S2     _tmp_string,B5    ; |184| 
     612                    
     613 000004c0 00001362             B       .S2X    A0                ; |184| 
     614 000004c4 020002AA+            MVKL    .S2     SL2+0,B4          ; |184| 
     615 000004c8 0280006A!            MVKH    .S2     _tmp_string,B5    ; |184| 
     616 000004cc 0200006A+            MVKH    .S2     SL2+0,B4          ; |184| 
     617 000004d0 0182702A'            MVKL    .S2     RL22,B3           ; |184| 
     618                    
     619 000004d4 0180006B'            MVKH    .S2     RL22,B3           ; |184| 
     620 000004d8 023C22F7  ||         STW     .D2T2   B4,*+SP(4)        ; |184| 
     621 000004dc 021411A0  ||         MV      .S1X    B5,A4             ; |184| 
     622                    
     623 000004e0           RL22:      ; CALL OCCURS                     ; |184| 
     624 000004e0 00000028!            MVKL    .S1     _Report,A0        ; |184| 
     625 000004e4 00000068!            MVKH    .S1     _Report,A0        ; |184| 
     626 000004e8 00001362             B       .S2X    A0                ; |184| 
     627 000004ec 01827C2A'            MVKL    .S2     RL24,B3           ; |184| 
     628 000004f0 0180006A'            MVKH    .S2     RL24,B3           ; |184| 
     629 000004f4 00004000             NOP             3
     630 000004f8           RL24:      ; CALL OCCURS                     ; |184| 
     631 000004f8 02800F2A+            MVKL    .S2     SL3+0,B5          ; |185| 
     632 000004fc 0280006A+            MVKH    .S2     SL3+0,B5          ; |185| 
     633 00000500 0201FE2A             MVKL    .S2     0x20003fc,B4      ; |185| 
     634                    
     635 00000504 02BC22F7             STW     .D2T2   B5,*+SP(4)        ; |185| 
     636 00000508 0201006A  ||         MVKH    .S2     0x20003fc,B4      ; |185| 
     637                    
     638 0000050c 021002E6             LDW     .D2T2   *B4,B4            ; |185| 
     639 00000510 0001FE28             MVKL    .S1     0x20003fc,A0      ; |185| 
     640 00000514 00010068             MVKH    .S1     0x20003fc,A0      ; |185| 
     641 00000518 02000028!            MVKL    .S1     _tmp_string,A4    ; |185| 
     642 0000051c 0182A62A'            MVKL    .S2     RL26,B3           ; |185| 
     643 00000520 0212180A             EXTU    .S2     B4,16,24,B4       ; |185| 
     644 00000524 023C42F6             STW     .D2T2   B4,*+SP(8)        ; |185| 
     645                    
     646 00000528 00000029!            MVKL    .S1     _sprintf,A0       ; |185| 
     647 0000052c 01800264  ||         LDW     .D1T1   *A0,A3            ; |185| 
     648                    
     649 00000530 00000068!            MVKH    .S1     _sprintf,A0       ; |185| 
     650 00000534 00001362             B       .S2X    A0                ; |185| 
     651 00000538 02000068!            MVKH    .S1     _tmp_string,A4    ; |185| 
     652 0000053c 0180006A'            MVKH    .S2     RL26,B3           ; |185| 
     653 00000540 018F1808             EXTU    .S1     A3,24,24,A3       ; |185| 
     654 00000544 01BC62F4             STW     .D2T1   A3,*+SP(12)       ; |185| 
     655 00000548 00000000             NOP             1
     656 0000054c           RL26:      ; CALL OCCURS                     ; |185| 
     657 0000054c 00000028!            MVKL    .S1     _Report,A0        ; |185| 
     658 00000550 00000068!            MVKH    .S1     _Report,A0        ; |185| 
     659 00000554 00001362             B       .S2X    A0                ; |185| 
     660 00000558 0182B22A'            MVKL    .S2     RL28,B3           ; |185| 
TMS320C6x COFF Assembler         Version 4.10     Wed May 08 01:13:19 2024
Copyright (c) 1996-2001 Texas Instruments Incorporated
temp\main.asm                                                        PAGE   13

     661 0000055c 0180006A'            MVKH    .S2     RL28,B3           ; |185| 
     662 00000560 00004000             NOP             3
     663 00000564           RL28:      ; CALL OCCURS                     ; |185| 
     664                    ;** --------------------------------------------------------------------------*
     665 00000564 00004C28'            MVKL    .S1     _GIE,A0           ; |189| 
     666 00000568 00000068'            MVKH    .S1     _GIE,A0           ; |189| 
     667 0000056c 00001362             B       .S2X    A0                ; |189| 
     668 00000570 0200002A!            MVKL    .S2     _TFlag,B4         ; |187| 
     669 00000574 0182C42A'            MVKL    .S2     RL30,B3           ; |189| 
     670 00000578 0200006A!            MVKH    .S2     _TFlag,B4         ; |187| 
     671 0000057c 028008C2             ZERO    .D2     B5                ; |187| 
     672                    
     673 00000580 029002F7             STW     .D2T2   B5,*B4            ; |187| 
     674 00000584 0180006A' ||         MVKH    .S2     RL30,B3           ; |189| 
     675                    
     676 00000588           RL30:      ; CALL OCCURS                     ; |189| 
     677 00000588 0000DC28'            MVKL    .S1     _WaitTFlagCnt,A0  ; |193| 
     678 0000058c 00000068'            MVKH    .S1     _WaitTFlagCnt,A0  ; |193| 
     679 00000590 00001362             B       .S2X    A0                ; |193| 
     680 00000594 02004A2A             MVKL    .S2     0x2000094,B4      ; |191| 
     681 00000598 0182D82A'            MVKL    .S2     RL32,B3           ; |193| 
     682 0000059c 0201006A             MVKH    .S2     0x2000094,B4      ; |191| 
     683 000005a0 018000A8             MVK     .S1     1,A3              ; |191| 
     684                    
     685 000005a4 019002F5             STW     .D2T1   A3,*B4            ; |191| 
     686 000005a8 0180006B' ||         MVKH    .S2     RL32,B3           ; |193| 
     687 000005ac 02003228  ||         MVK     .S1     0x64,A4           ; |193| 
     688                    
     689 000005b0           RL32:      ; CALL OCCURS                     ; |193| 
     690                    
     691 000005b0 0304002B             MVK     .S2     2048,B6           ; |198| 
     692 000005b4 0287FFA9  ||         MVK     .S1     4095,A5           ; |199| 
     693 000005b8 030428C0  ||         ZERO    .D1     A6                ; |197| 
     694                    
     695                    ;*----------------------------------------------------------------------------*
     696                    ;*   SOFTWARE PIPELINE INFORMATION
     697                    ;*      Disqualified loop: software pipelining disabled
     698                    ;*----------------------------------------------------------------------------*
     699 000005bc           L14:    
     700 000005bc 0280DC2A'            MVKL    .S2     _WaitTFlagCnt,B5  ; |200| 
     701 000005c0 0280006A'            MVKH    .S2     _WaitTFlagCnt,B5  ; |200| 
     702 000005c4 00140362             B       .S2     B5                ; |200| 
     703 000005c8 00005028             MVKL    .S1     0x20000a0,A0      ; |197| 
     704                    
     705 000005cc 00010069             MVKH    .S1     0x20000a0,A0      ; |197| 
     706 000005d0 02004E2A  ||         MVKL    .S2     0x200009c,B4      ; |198| 
     707                    
     708 000005d4 00004C29             MVKL    .S1     0x2000098,A0      ; |199| 
     709 000005d8 03000275  ||         STW     .D1T1   A6,*A0            ; |197| 
     710 000005dc 0201006A  ||         MVKH    .S2     0x200009c,B4      ; |198| 
     711                    
     712 000005e0 00010069             MVKH    .S1     0x2000098,A0      ; |199| 
     713 000005e4 031002F7  ||         STW     .D2T2   B6,*B4            ; |198| 
     714 000005e8 0182FC2A' ||         MVKL    .S2     RL34,B3           ; |200| 
     715                    
TMS320C6x COFF Assembler         Version 4.10     Wed May 08 01:13:19 2024
Copyright (c) 1996-2001 Texas Instruments Incorporated
temp\main.asm                                                        PAGE   14

     716 000005ec 02800275             STW     .D1T1   A5,*A0            ; |199| 
     717 000005f0 0180006B' ||         MVKH    .S2     RL34,B3           ; |200| 
     718 000005f4 02006428  ||         MVK     .S1     0xc8,A4           ; |200| 
     719                    
     720 000005f8           RL34:      ; CALL OCCURS                     ; |200| 
     721 000005f8 0200DC2A'            MVKL    .S2     _WaitTFlagCnt,B4  ; |205| 
     722 000005fc 0200006A'            MVKH    .S2     _WaitTFlagCnt,B4  ; |205| 
     723 00000600 00100362             B       .S2     B4                ; |205| 
     724                    
     725 00000604 0280502B             MVKL    .S2     0x20000a0,B5      ; |202| 
     726 00000608 01804E28  ||         MVKL    .S1     0x200009c,A3      ; |203| 
     727                    
     728 0000060c 01810069             MVKH    .S1     0x200009c,A3      ; |203| 
     729 00000610 0281006A  ||         MVKH    .S2     0x20000a0,B5      ; |202| 
     730                    
     731 00000614 031402F7             STW     .D2T2   B6,*B5            ; |202| 
     732 00000618 00004C28  ||         MVKL    .S1     0x2000098,A0      ; |204| 
     733                    
     734 00000620 030C0275             STW     .D1T1   A6,*A3            ; |203| 
     735 00000624 01831A2B' ||         MVKL    .S2     RL36,B3           ; |205| 
     736 00000628 00010068  ||         MVKH    .S1     0x2000098,A0      ; |204| 
     737                    
     738 0000062c 02800275             STW     .D1T1   A5,*A0            ; |204| 
     739 00000630 0180006A' ||         MVKH    .S2     RL36,B3           ; |205| 
     740                    
     741 00000634           RL36:      ; CALL OCCURS                     ; |205| 
     742 00000634 0200DC2A'            MVKL    .S2     _WaitTFlagCnt,B4  ; |210| 
     743                    
     744 00000638 01804E29             MVKL    .S1     0x200009c,A3      ; |208| 
     745 0000063c 0200006A' ||         MVKH    .S2     _WaitTFlagCnt,B4  ; |210| 
     746                    
     747 00000640 00100363             B       .S2     B4                ; |210| 
     748 00000644 00005028  ||         MVKL    .S1     0x20000a0,A0      ; |207| 
     749                    
     750 00000648 00010068             MVKH    .S1     0x20000a0,A0      ; |207| 
     751 0000064c 02004C28             MVKL    .S1     0x2000098,A4      ; |209| 
     752                    
     753 00000650 02800275             STW     .D1T1   A5,*A0            ; |207| 
     754 00000654 01810068  ||         MVKH    .S1     0x200009c,A3      ; |208| 
     755                    
     756 00000660 030C0275             STW     .D1T1   A6,*A3            ; |208| 
     757 00000664 01833C2B' ||         MVKL    .S2     RL38,B3           ; |210| 
     758 00000668 02010068  ||         MVKH    .S1     0x2000098,A4      ; |209| 
     759                    
     760 0000066c 02006429             MVK     .S1     0xc8,A4           ; |210| 
     761 00000670 03100277  ||         STW     .D1T2   B6,*A4            ; |209| 
     762 00000674 0180006A' ||         MVKH    .S2     RL38,B3           ; |210| 
     763                    
     764 00000678           RL38:      ; CALL OCCURS                     ; |210| 
     765 00000678 0200DC2A'            MVKL    .S2     _WaitTFlagCnt,B4  ; |215| 
     766 0000067c 0200006A'            MVKH    .S2     _WaitTFlagCnt,B4  ; |215| 
     767                    
     768 00000680 00100363             B       .S2     B4                ; |215| 
     769 00000684 00005028  ||         MVKL    .S1     0x20000a0,A0      ; |212| 
     770                    
TMS320C6x COFF Assembler         Version 4.10     Wed May 08 01:13:19 2024
Copyright (c) 1996-2001 Texas Instruments Incorporated
temp\main.asm                                                        PAGE   15

     771 00000688 00010068             MVKH    .S1     0x20000a0,A0      ; |212| 
     772                    
     773 0000068c 02804E2B             MVKL    .S2     0x200009c,B5      ; |213| 
     774 00000690 02800274  ||         STW     .D1T1   A5,*A0            ; |212| 
     775                    
     776 00000694 0281006B             MVKH    .S2     0x200009c,B5      ; |213| 
     777 00000698 00004C28  ||         MVKL    .S1     0x2000098,A0      ; |214| 
     778                    
     779 000006a0 00010069             MVKH    .S1     0x2000098,A0      ; |214| 
     780 000006a4 01835A2B' ||         MVKL    .S2     RL40,B3           ; |215| 
     781 000006a8 031402F6  ||         STW     .D2T2   B6,*B5            ; |213| 
     782                    
     783 000006ac 0180006B'            MVKH    .S2     RL40,B3           ; |215| 
     784 000006b0 03000274  ||         STW     .D1T1   A6,*A0            ; |214| 
     785                    
     786 000006b4           RL40:      ; CALL OCCURS                     ; |215| 
     787 000006b4 0200DC2A'            MVKL    .S2     _WaitTFlagCnt,B4  ; |220| 
     788 000006b8 0200006A'            MVKH    .S2     _WaitTFlagCnt,B4  ; |220| 
     789 000006bc 00100362             B       .S2     B4                ; |220| 
     790                    
     791 000006c0 0280502B             MVKL    .S2     0x20000a0,B5      ; |217| 
     792 000006c4 01804E28  ||         MVKL    .S1     0x200009c,A3      ; |218| 
     793                    
     794 000006c8 0281006B             MVKH    .S2     0x20000a0,B5      ; |217| 
     795 000006cc 01810068  ||         MVKH    .S1     0x200009c,A3      ; |218| 
     796                    
     797 000006d0 00004C29             MVKL    .S1     0x2000098,A0      ; |219| 
     798 000006d4 031402F6  ||         STW     .D2T2   B6,*B5            ; |217| 
     799                    
     800 000006e0 028C0275             STW     .D1T1   A5,*A3            ; |218| 
     801 000006e4 01837A2B' ||         MVKL    .S2     RL42,B3           ; |220| 
     802 000006e8 00010068  ||         MVKH    .S1     0x2000098,A0      ; |219| 
     803                    
     804 000006ec 03000275             STW     .D1T1   A6,*A0            ; |219| 
     805 000006f0 0180006A' ||         MVKH    .S2     RL42,B3           ; |220| 
     806                    
     807 000006f4           RL42:      ; CALL OCCURS                     ; |220| 
     808 000006f4 0000DC28'            MVKL    .S1     _WaitTFlagCnt,A0  ; |225| 
     809 000006f8 00000068'            MVKH    .S1     _WaitTFlagCnt,A0  ; |225| 
     810                    
     811 00000700 00001363             B       .S2X    A0                ; |225| 
     812 00000704 01805028  ||         MVKL    .S1     0x20000a0,A3      ; |222| 
     813                    
     814 00000708 01810068             MVKH    .S1     0x20000a0,A3      ; |222| 
     815                    
     816 0000070c 02004C2B             MVKL    .S2     0x2000098,B4      ; |224| 
     817 00000710 02004E28  ||         MVKL    .S1     0x200009c,A4      ; |223| 
     818                    
     819 00000714 01839A2B'            MVKL    .S2     RL44,B3           ; |225| 
     820 00000718 02010069  ||         MVKH    .S1     0x200009c,A4      ; |223| 
     821 0000071c 030C0274  ||         STW     .D1T1   A6,*A3            ; |222| 
     822                    
     823 00000720 0201006B             MVKH    .S2     0x2000098,B4      ; |224| 
     824 00000724 02900274  ||         STW     .D1T1   A5,*A4            ; |223| 
     825                    
TMS320C6x COFF Assembler         Version 4.10     Wed May 08 01:13:19 2024
Copyright (c) 1996-2001 Texas Instruments Incorporated
temp\main.asm                                                        PAGE   16

     826 00000728 031002F7             STW     .D2T2   B6,*B4            ; |224| 
     827 0000072c 0180006B' ||         MVKH    .S2     RL44,B3           ; |225| 
     828 00000730 02006428  ||         MVK     .S1     0xc8,A4           ; |225| 
     829                    
     830 00000734           RL44:      ; CALL OCCURS                     ; |225| 
     831 00000734 0FFFD390             B       .S1     L14               ; |226| 
     832 00000738 00008000             NOP             5
     833                               ; BRANCH OCCURS                   ; |226| 
     834                    
     835                    
     836                    ;******************************************************************************
     837                    ;* STRINGS                                                                    *
     838                    ;******************************************************************************
     839 00000000                   .sect   ".const"
     840 00000000 0000000D  SL1:    .string 13,10,13,10,0
         00000001 0000000A 
         00000002 0000000D 
         00000003 0000000A 
         00000004 00000000 
     841 00000005 0000004D  SL2:    .string "Mechatronics Course %d",13,10,0
         00000006 00000065 
         00000007 00000063 
         00000008 00000068 
         00000009 00000061 
         0000000a 00000074 
         0000000b 00000072 
         0000000c 0000006F 
         0000000d 0000006E 
         0000000e 00000069 
         0000000f 00000063 
         00000010 00000073 
         00000011 00000020 
         00000012 00000043 
         00000013 0000006F 
         00000014 00000075 
         00000015 00000072 
         00000016 00000073 
         00000017 00000065 
         00000018 00000020 
         00000019 00000025 
         0000001a 00000064 
         0000001b 0000000D 
         0000001c 0000000A 
         0000001d 00000000 
     842 0000001e 00000046  SL3:    .string "FPGA Ver%2x.%02x",13,10,0
         0000001f 00000050 
         00000020 00000047 
         00000021 00000041 
         00000022 00000020 
         00000023 00000056 
         00000024 00000065 
         00000025 00000072 
         00000026 00000025 
         00000027 00000032 
         00000028 00000078 
TMS320C6x COFF Assembler         Version 4.10     Wed May 08 01:13:19 2024
Copyright (c) 1996-2001 Texas Instruments Incorporated
temp\main.asm                                                        PAGE   17

         00000029 0000002E 
         0000002a 00000025 
         0000002b 00000030 
         0000002c 00000032 
         0000002d 00000078 
         0000002e 0000000D 
         0000002f 0000000A 
         00000030 00000000 
     843                    ;******************************************************************************
     844                    ;* UNDEFINED EXTERNAL REFERENCES                                              *
     845                    ;******************************************************************************
     846                            .global _sprintf
     847                            .global _InitUART
     848                            .global _Report
     849                            .global _InitUSBMon
     850                            .global _tmp_string
     851                            .global _TFlag
     852                            .global __divd

No Assembly Errors, No Assembly Warnings
