TMS320C6x COFF Assembler         Version 4.10     Wed May 08 17:22:45 2024
Copyright (c) 1996-2001 Texas Instruments Incorporated
temp\serial.asm                                                      PAGE    1

       1                    ;******************************************************************************
       2                    ;* TMS320C6x ANSI C Codegen                                      Version 4.10 *
       3                    ;* Date/Time created: Wed May 08 17:22:45 2024                                *
       4                    ;******************************************************************************
       5                    
       6                    ;******************************************************************************
       7                    ;* GLOBAL FILE PARAMETERS                                                     *
       8                    ;*                                                                            *
       9                    ;*   Architecture      : TMS320C670x                                          *
      10                    ;*   Optimization      : Disabled                                             *
      11                    ;*   Optimizing for    : Compile time, Ease of Development                    *
      12                    ;*                       Based on options: no -o, no -ms                      *
      13                    ;*   Endian            : Little                                               *
      14                    ;*   Interrupt Thrshld : Disabled                                             *
      15                    ;*   Memory Model      : Large                                                *
      16                    ;*   Calls to RTS      : Far                                                  *
      17                    ;*   Pipelining        : Disabled                                             *
      18                    ;*   Memory Aliases    : Presume are aliases (pessimistic)                    *
      19                    ;*   Debug Info        : No Debug Info                                        *
      20                    ;*                                                                            *
      21                    ;******************************************************************************
      22                    
      23                            .asg    A15, FP
      24                            .asg    B14, DP
      25                            .asg    B15, SP
      26                            .global $bss
      27                    
      28                            .global _compacket
      29 00000000           _compacket:     .usect  .far,236,4
      30                            .global _respacket
      31 000000ec           _respacket:     .usect  .far,212,4
      32                            .global _tmp_string
      33 000001c0           _tmp_string:    .usect  .far,200,4
      34                    ;       acp6x -q -D_FAR_RTS=1 --large_model=3 --version=6701 -m --i_output_file C:\Users\hge42\AppData
      35 00000000                   .sect   ".text"
      36                            .global _InitUART
      37                    
      38                    ;******************************************************************************
      39                    ;* FUNCTION NAME: _InitUART                                                   *
      40                    ;*                                                                            *
      41                    ;*   Regs Modified     : A0,A3,B0,B1,B2,B4,B5,B6,B7,B8,B9,SP                  *
      42                    ;*   Regs Used         : A0,A3,B0,B1,B2,B3,B4,B5,B6,B7,B8,B9,SP               *
      43                    ;*   Local Frame Size  : 0 Args + 4 Auto + 0 Save = 4 byte                    *
      44                    ;******************************************************************************
      45 00000000           _InitUART:
      46                    ;** --------------------------------------------------------------------------*
      47 00000000 02003C2A-            MVKL    .S2     _compacket+120,B4 ; |22| 
      48 00000004 04003E2A-            MVKL    .S2     _compacket+124,B8 ; |23| 
      49 00000008 0380742A-            MVKL    .S2     _compacket+232,B7 ; |24| 
      50 0000000c 0480DE2A-            MVKL    .S2     _respacket+208,B9 ; |25| 
      51 00000010 0280062A             MVKL    .S2     0x200000c,B5      ; |27| 
      52 00000014 0000022A             MVKL    .S2     0x2000004,B0      ; |29| 
      53 00000018 0080062A             MVKL    .S2     0x200000c,B1      ; |31| 
      54 0000001c 0200006A-            MVKH    .S2     _compacket+120,B4 ; |22| 
      55 00000020 0400006A-            MVKH    .S2     _compacket+124,B8 ; |23| 
TMS320C6x COFF Assembler         Version 4.10     Wed May 08 17:22:45 2024
Copyright (c) 1996-2001 Texas Instruments Incorporated
temp\serial.asm                                                      PAGE    2

      56 00000024 0380006A-            MVKH    .S2     _compacket+232,B7 ; |24| 
      57                    
      58 00000028 0480006B-            MVKH    .S2     _respacket+208,B9 ; |25| 
      59 0000002c 01800028- ||         MVKL    .S1     _compacket,A3     ; |22| 
      60                    
      61 00000030 0281006B             MVKH    .S2     0x200000c,B5      ; |27| 
      62 00000034 00000029- ||         MVKL    .S1     _compacket,A0     ; |23| 
      63 00000038 030428C2  ||         ZERO    .D2     B6                ; |28| 
      64                    
      65 00000040 0301006B             MVKH    .S2     0x2000000,B6      ; |28| 
      66 00000044 01800068- ||         MVKH    .S1     _compacket,A3     ; |22| 
      67                    
      68 00000048 0001006B             MVKH    .S2     0x2000004,B0      ; |29| 
      69 0000004c 019002F5  ||         STW     .D2T1   A3,*B4            ; |22| 
      70 00000050 00000068- ||         MVKH    .S1     _compacket,A0     ; |23| 
      71                    
      72 00000054 002002F5             STW     .D2T1   A0,*B8            ; |23| 
      73 00000058 0081006B  ||         MVKH    .S2     0x200000c,B1      ; |31| 
      74 0000005c 010840FA  ||         ZERO    .L2     B2                ; |24| 
      75                    
      76 00000060 011C02F7             STW     .D2T2   B2,*B7            ; |24| 
      77 00000064 000428C1  ||         ZERO    .D1     A0                ; |25| 
      78 00000068 0200042A  ||         MVKL    .S2     0x2000008,B4      ; |32| 
      79                    
      80 0000006c 00004029             MVK     .S1     128,A0            ; |27| 
      81 00000070 002402F5  ||         STW     .D2T1   A0,*B9            ; |25| 
      82 00000074 0201006A  ||         MVKH    .S2     0x2000008,B4      ; |32| 
      83                    
      84 00000080 00000329             MVK     .S1     6,A0              ; |28| 
      85 00000084 001402F5  ||         STW     .D2T1   A0,*B5            ; |27| 
      86 00000088 0400042A  ||         MVKL    .S2     0x2000008,B8      ; |33| 
      87                    
      88 0000008c 030420FB             ZERO    .L2     B6                ; |29| 
      89 00000090 001802F5  ||         STW     .D2T1   A0,*B6            ; |28| 
      90 00000094 0401006A  ||         MVKH    .S2     0x2000008,B8      ; |33| 
      91                    
      92 000000a0 030002F7             STW     .D2T2   B6,*B0            ; |29| 
      93 000000a4 000001A9  ||         MVK     .S1     3,A0              ; |31| 
      94 000000a8 0380022A  ||         MVKL    .S2     0x2000004,B7      ; |34| 
      95                    
      96 000000ac 000000A9             MVK     .S1     1,A0              ; |32| 
      97 000000b0 000402F5  ||         STW     .D2T1   A0,*B1            ; |31| 
      98 000000b4 0381006A  ||         MVKH    .S2     0x2000004,B7      ; |34| 
      99                    
     100 000000c0 000003A9             MVK     .S1     7,A0              ; |33| 
     101 000000c4 001002F5  ||         STW     .D2T1   A0,*B4            ; |32| 
     102 000000c8 0480082A  ||         MVKL    .S2     0x2000010,B9      ; |35| 
     103                    
     104 000000cc 000000A9             MVK     .S1     1,A0              ; |34| 
     105 000000d0 002002F5  ||         STW     .D2T1   A0,*B8            ; |33| 
     106 000000d4 0481006A  ||         MVKH    .S2     0x2000010,B9      ; |35| 
     107                    
     108 000000e0 000428C1             ZERO    .D1     A0                ; |37| 
     109 000000e4 001C02F5  ||         STW     .D2T1   A0,*B7            ; |34| 
     110 000000e8 0280042A  ||         MVK     .S2     8,B5              ; |35| 
TMS320C6x COFF Assembler         Version 4.10     Wed May 08 17:22:45 2024
Copyright (c) 1996-2001 Texas Instruments Incorporated
temp\serial.asm                                                      PAGE    3

     111                    
     112 000000ec 02A402F7             STW     .D2T2   B5,*B9            ; |35| 
     113 000000f0 00010068  ||         MVKH    .S1     0x2000000,A0      ; |37| 
     114                    
     115 000000f4 000C0363             B       .S2     B3                ; |38| 
     116 000000f8 00000264  ||         LDW     .D1T1   *A0,A0            ; |37| 
     117                    
     118 000000fc 07BD09C2             SUB     .D2     SP,8,SP           ; |19| 
     119 00000100 00004000             NOP             3
     120                    
     121 00000104 07BD01A3             ADD     .S2     8,SP,SP           ; |38| 
     122 00000108 003C22F4  ||         STW     .D2T1   A0,*+SP(4)        ; |37| 
     123                    
     124                               ; BRANCH OCCURS                   ; |38| 
     125                    
     126                    
     127 0000010c                   .sect   ".text"
     128                            .global _ReceiveByte
     129                    
     130                    ;******************************************************************************
     131                    ;* FUNCTION NAME: _ReceiveByte                                                *
     132                    ;*                                                                            *
     133                    ;*   Regs Modified     : A0,A4                                                *
     134                    ;*   Regs Used         : A0,A4,B3                                             *
     135                    ;*   Local Frame Size  : 0 Args + 0 Auto + 0 Save = 0 byte                    *
     136                    ;******************************************************************************
     137 0000010c           _ReceiveByte:
     138                    ;** --------------------------------------------------------------------------*
     139 0000010c 000008C0             ZERO    .D1     A0                ; |42| 
     140 00000110 00010068             MVKH    .S1     0x2000000,A0      ; |42| 
     141 00000114 00000264             LDW     .D1T1   *A0,A0            ; |42| 
     142 00000118 000C0362             B       .S2     B3                ; |43| 
     143 0000011c 00004000             NOP             3
     144 00000120 00031808             EXTU    .S1     A0,24,24,A0       ; |42| 
     145 00000124 02031848             EXT     .S1     A0,24,24,A4       ; |42| 
     146                               ; BRANCH OCCURS                   ; |43| 
     147                    
     148                    
     149 00000128                   .sect   ".text"
     150                            .global _SendByte
     151                    
     152                    ;******************************************************************************
     153                    ;* FUNCTION NAME: _SendByte                                                   *
     154                    ;*                                                                            *
     155                    ;*   Regs Modified     : A0,A1,B4,SP                                          *
     156                    ;*   Regs Used         : A0,A1,A4,B3,B4,SP                                    *
     157                    ;*   Local Frame Size  : 0 Args + 4 Auto + 0 Save = 4 byte                    *
     158                    ;******************************************************************************
     159 00000128           _SendByte:
     160                    ;** --------------------------------------------------------------------------*
     161                    
     162 00000128 07BD09C3             SUB     .D2     SP,8,SP           ; |46| 
     163 0000012c 00000A28  ||         MVKL    .S1     0x2000014,A0      ; |47| 
     164                    
     165 00000130 023C82B5             STB     .D2T1   A4,*+SP(4)        ; |46| 
TMS320C6x COFF Assembler         Version 4.10     Wed May 08 17:22:45 2024
Copyright (c) 1996-2001 Texas Instruments Incorporated
temp\serial.asm                                                      PAGE    4

     166 00000134 00010068  ||         MVKH    .S1     0x2000014,A0      ; |47| 
     167                    
     168 00000138 00000264             LDW     .D1T1   *A0,A0            ; |47| 
     169 0000013c 00006000             NOP             4
     170 00000140 00833E08             EXTU    .S1     A0,25,30,A1       ; |47| 
     171 00000144 80000690     [ A1]   B       .S1     L2                ; |47| 
     172 00000148 90000A28     [!A1]   MVKL    .S1     0x2000014,A0      ; |47| 
     173 0000014c 90010068     [!A1]   MVKH    .S1     0x2000014,A0      ; |47| 
     174 00000150 90000264     [!A1]   LDW     .D1T1   *A0,A0            ; |47| 
     175 00000154 00002000             NOP             2
     176                               ; BRANCH OCCURS                   ; |47| 
     177                    ;*----------------------------------------------------------------------------*
     178                    ;*   SOFTWARE PIPELINE INFORMATION
     179                    ;*      Disqualified loop: software pipelining disabled
     180                    ;*----------------------------------------------------------------------------*
     181 00000158           L1:    
     182 00000158 00002000             NOP             2
     183 0000015c 00833E08             EXTU    .S1     A0,25,30,A1       ; |47| 
     184 00000160 9FFFFF10     [!A1]   B       .S1     L1                ; |47| 
     185 00000164 90000A28     [!A1]   MVKL    .S1     0x2000014,A0      ; |47| 
     186 00000168 90010068     [!A1]   MVKH    .S1     0x2000014,A0      ; |47| 
     187 0000016c 90000264     [!A1]   LDW     .D1T1   *A0,A0            ; |47| 
     188 00000170 00002000             NOP             2
     189                               ; BRANCH OCCURS                   ; |47| 
     190                    ;** --------------------------------------------------------------------------*
     191 00000174           L2:    
     192                    
     193 00000174 000C0363             B       .S2     B3                ; |50| 
     194 00000178 023C82A6  ||         LDB     .D2T2   *+SP(4),B4        ; |49| 
     195                    
     196 0000017c 07BD0942             ADD     .D2     8,SP,SP           ; |50| 
     197 00000180 00000000             NOP             1
     198 00000184 000008C0             ZERO    .D1     A0                ; |49| 
     199 00000188 00010068             MVKH    .S1     0x2000000,A0      ; |49| 
     200 0000018c 02000276             STW     .D1T2   B4,*A0            ; |49| 
     201                               ; BRANCH OCCURS                   ; |50| 
     202                    
     203                    
     204 00000190                   .sect   ".text"
     205                            .global _CheckSum
     206                    
     207                    ;******************************************************************************
     208                    ;* FUNCTION NAME: _CheckSum                                                   *
     209                    ;*                                                                            *
     210                    ;*   Regs Modified     : A0,A1,A2,A3,A4,A5,A6,A7,A8,A9,B0,B1,B2,B3,B4,B5,B6,  *
     211                    ;*                           B7,B8,B9,SP                                      *
     212                    ;*   Regs Used         : A0,A1,A2,A3,A4,A5,A6,A7,A8,A9,B0,B1,B2,B3,B4,B5,B6,  *
     213                    ;*                           B7,B8,B9,SP                                      *
     214                    ;*   Local Frame Size  : 0 Args + 8 Auto + 4 Save = 12 byte                   *
     215                    ;******************************************************************************
     216 00000190           _CheckSum:
     217                    ;** --------------------------------------------------------------------------*
     218 00000190 00000B10             B       .S1     L4                ; |57| 
     219                    
     220 00000194 020425E3             ZERO    .S2     B4                ; |54| 
TMS320C6x COFF Assembler         Version 4.10     Wed May 08 17:22:45 2024
Copyright (c) 1996-2001 Texas Instruments Incorporated
temp\serial.asm                                                      PAGE    5

     221 00000198 01BC94F6  ||         STW     .D2T2   B3,*SP--(16)      ; |53| 
     222                    
     223 000001a0 023C42F7             STW     .D2T2   B4,*+SP(8)        ; |57| 
     224 000001a4 00007228- ||         MVKL    .S1     _compacket+228,A0 ; |59| 
     225                    
     226 000001a8 00000069-            MVKH    .S1     _compacket+228,A0 ; |59| 
     227 000001ac 023C22F6  ||         STW     .D2T2   B4,*+SP(4)        ; |58| 
     228                    
     229 000001b0 00000264             LDW     .D1T1   *A0,A0            ; |59| 
     230 000001b4 00000000             NOP             1
     231                               ; BRANCH OCCURS                   ; |57| 
     232                    ;** --------------------------------------------------------------------------*
     233 000001b8           L3:    
     234 000001b8 02942942             ADD     .D2     1,B5,B5
     235 000001bc 02BC42F6             STW     .D2T2   B5,*+SP(8)        ; |59| 
     236 000001c0 00007228-            MVKL    .S1     _compacket+228,A0 ; |59| 
     237 000001c4 00000068-            MVKH    .S1     _compacket+228,A0 ; |59| 
     238 000001c8 021881E2             ADD     .S2     B4,B6,B4          ; |58| 
     239 000001cc 023C22F6             STW     .D2T2   B4,*+SP(4)        ; |58| 
     240 000001d0 00000264             LDW     .D1T1   *A0,A0            ; |59| 
     241 000001d4 00000000             NOP             1
     242                    ;*----------------------------------------------------------------------------*
     243                    ;*   SOFTWARE PIPELINE INFORMATION
     244                    ;*      Disqualified loop: software pipelining disabled
     245                    ;*----------------------------------------------------------------------------*
     246 000001d8           L4:    
     247 000001d8 02BC42E6             LDW     .D2T2   *+SP(8),B5        ; |59| 
     248 000001dc 0200402A-            MVKL    .S2     _compacket+128,B4 ; |59| 
     249 000001e0 0200006A-            MVKH    .S2     _compacket+128,B4 ; |59| 
     250 000001e4 021012FA             SUB     .L2X    A0,B4,B4          ; |59| 
     251 000001e8 021049C2             SUB     .D2     B4,2,B4           ; |59| 
     252 000001ec 0010AAFA             CMPLT   .L2     B5,B4,B0          ; |59| 
     253 000001f0 2FFFFB10     [ B0]   B       .S1     L3                ; |59| 
     254 000001f4 3280002A!    [!B0]   MVKL    .S2     __remi,B5         ; |60| 
     255 000001f8 3280006A!    [!B0]   MVKH    .S2     __remi,B5         ; |60| 
     256 000001fc 2200402A-    [ B0]   MVKL    .S2     _compacket+128,B4 ; |58| 
     257                    
     258 00000200 233C22E7     [ B0]   LDW     .D2T2   *+SP(4),B6        ; |58| 
     259 00000204 2200006A- || [ B0]   MVKH    .S2     _compacket+128,B4 ; |58| 
     260                    
     261 00000208 22148AA6     [ B0]   LDB     .D2T2   *+B5[B4],B4       ; |58| 
     262                               ; BRANCH OCCURS                   ; |59| 
     263                    ;** --------------------------------------------------------------------------*
     264 0000020c 00140362             B       .S2     B5                ; |60| 
     265 00000210 023C22E4             LDW     .D2T1   *+SP(4),A4
     266 00000214 0181122A'            MVKL    .S2     RL0,B3            ; |60| 
     267 00000218 0180006A'            MVKH    .S2     RL0,B3            ; |60| 
     268 0000021c 00000000             NOP             1
     269 00000220 0200322A             MVK     .S2     0x64,B4           ; |60| 
     270 00000224           RL0:       ; CALL OCCURS                     ; |60| 
     271 00000224 0200722A-            MVKL    .S2     _compacket+228,B4 ; |62| 
     272                    
     273 00000228 0200006B-            MVKH    .S2     _compacket+228,B4 ; |62| 
     274 0000022c 023C22F4  ||         STW     .D2T1   A4,*+SP(4)        ; |60| 
     275                    
TMS320C6x COFF Assembler         Version 4.10     Wed May 08 17:22:45 2024
Copyright (c) 1996-2001 Texas Instruments Incorporated
temp\serial.asm                                                      PAGE    6

     276 00000230 029002E6             LDW     .D2T2   *B4,B5            ; |62| 
     277 00000234 00007228-            MVKL    .S1     _compacket+228,A0 ; |63| 
     278 00000238 020008C2             ZERO    .D2     B4                ; |62| 
     279 0000023c 00000068-            MVKH    .S1     _compacket+228,A0 ; |63| 
     280 00000240 0181322A'            MVKL    .S2     RL2,B3            ; |63| 
     281 00000244 021402B6             STB     .D2T2   B4,*B5            ; |62| 
     282                    
     283 00000248 00000029!            MVKL    .S1     _atoi,A0          ; |63| 
     284 0000024c 01800264  ||         LDW     .D1T1   *A0,A3            ; |63| 
     285                    
     286 00000250 00000068!            MVKH    .S1     _atoi,A0          ; |63| 
     287 00000254 00001362             B       .S2X    A0                ; |63| 
     288 00000258 0180006A'            MVKH    .S2     RL2,B3            ; |63| 
     289 0000025c 00004000             NOP             3
     290 00000260 020C49C0             SUB     .D1     A3,2,A4           ; |63| 
     291 00000264           RL2:       ; CALL OCCURS                     ; |63| 
     292 00000264 023C22E6             LDW     .D2T2   *+SP(4),B4        ; |63| 
     293 00000268 01BC92E6             LDW     .D2T2   *++SP(16),B3      ; |69| 
     294 0000026c 00006000             NOP             4
     295 00000270 000C0362             B       .S2     B3                ; |69| 
     296 00000274 00109A7A             CMPEQ   .L2X    A4,B4,B0          ; |63| 
     297 00000278 020000A8             MVK     .S1     0x1,A4            ; |64| 
     298 0000027c 320008C0     [!B0]   ZERO    .D1     A4                ; |67| 
     299 00000280 00002000             NOP             2
     300                               ; BRANCH OCCURS                   ; |69| 
     301                    
     302                    
     303 00000284                   .sect   ".text"
     304                            .global _SendData
     305                    
     306                    ;******************************************************************************
     307                    ;* FUNCTION NAME: _SendData                                                   *
     308                    ;*                                                                            *
     309                    ;*   Regs Modified     : A0,A1,A2,A3,A4,A5,A6,A7,A8,A9,B0,B1,B2,B3,B4,B5,B6,  *
     310                    ;*                           B7,B8,B9,SP                                      *
     311                    ;*   Regs Used         : A0,A1,A2,A3,A4,A5,A6,A7,A8,A9,B0,B1,B2,B3,B4,B5,B6,  *
     312                    ;*                           B7,B8,B9,SP                                      *
     313                    ;*   Local Frame Size  : 0 Args + 0 Auto + 4 Save = 4 byte                    *
     314                    ;******************************************************************************
     315 00000284           _SendData:
     316                    ;** --------------------------------------------------------------------------*
     317 00000284 00000028!            MVKL    .S1     _strlen,A0        ; |74| 
     318                    
     319 00000288 0200762B-            MVKL    .S2     _respacket,B4     ; |74| 
     320 0000028c 00000068! ||         MVKH    .S1     _strlen,A0        ; |74| 
     321                    
     322 00000290 00001362             B       .S2X    A0                ; |74| 
     323 00000294 0280DE2A-            MVKL    .S2     _respacket+208,B5 ; |73| 
     324                    
     325 00000298 01815C2B'            MVKL    .S2     RL4,B3            ; |74| 
     326 0000029c 01BC54F6  ||         STW     .D2T2   B3,*SP--(8)       ; |72| 
     327                    
     328 000002a0 0200006A-            MVKH    .S2     _respacket,B4     ; |74| 
     329                    
     330 000002a4 0280006B-            MVKH    .S2     _respacket+208,B5 ; |73| 
TMS320C6x COFF Assembler         Version 4.10     Wed May 08 17:22:45 2024
Copyright (c) 1996-2001 Texas Instruments Incorporated
temp\serial.asm                                                      PAGE    7

     331 000002a8 018000A8  ||         MVK     .S1     1,A3              ; |73| 
     332                    
     333 000002ac 019402F5             STW     .D2T1   A3,*B5            ; |73| 
     334 000002b0 021011A1  ||         MV      .S1X    B4,A4             ; |74| 
     335 000002b4 0180006A' ||         MVKH    .S2     RL4,B3            ; |74| 
     336                    
     337 000002b8           RL4:       ; CALL OCCURS                     ; |74| 
     338                    
     339 000002b8 028000A9             MVK     .S1     1,A5              ; |75| 
     340 000002bc 0200DA2A- ||         MVKL    .S2     _respacket+200,B4 ; |74| 
     341                    
     342 000002c0 01807629-            MVKL    .S1     _respacket,A3     ; |76| 
     343 000002c4 001029C1  ||         SUB     .D1     A4,1,A0           ; |74| 
     344 000002c8 0200006A- ||         MVKH    .S2     _respacket+200,B4 ; |74| 
     345                    
     346 000002cc 00009429'            MVKL    .S1     _SendByte,A0      ; |76| 
     347 000002d0 001002F5  ||         STW     .D2T1   A0,*B4            ; |74| 
     348 000002d4 0280DC2A- ||         MVKL    .S2     _respacket+204,B5 ; |75| 
     349                    
     350 000002d8 00000069'            MVKH    .S1     _SendByte,A0      ; |76| 
     351 000002dc 0280006A- ||         MVKH    .S2     _respacket+204,B5 ; |75| 
     352                    
     353 000002e0 00001363             B       .S2X    A0                ; |76| 
     354 000002e4 029402F5  ||         STW     .D2T1   A5,*B5            ; |75| 
     355 000002e8 01800068- ||         MVKH    .S1     _respacket,A3     ; |76| 
     356                    
     357 000002ec 020C0224             LDB     .D1T1   *A3,A4            ; |76| 
     358 000002f0 01817E2A'            MVKL    .S2     RL6,B3            ; |76| 
     359 000002f4 0180006A'            MVKH    .S2     RL6,B3            ; |76| 
     360 000002f8 00002000             NOP             2
     361 000002fc           RL6:       ; CALL OCCURS                     ; |76| 
     362 000002fc 0200022A             MVKL    .S2     0x2000004,B4      ; |77| 
     363                    
     364 00000300 0201006B             MVKH    .S2     0x2000004,B4      ; |77| 
     365 00000304 000001A8  ||         MVK     .S1     3,A0              ; |77| 
     366                    
     367 00000308 001002F4             STW     .D2T1   A0,*B4            ; |77| 
     368 0000030c 01BC52E6             LDW     .D2T2   *++SP(8),B3       ; |78| 
     369 00000310 00006000             NOP             4
     370 00000314 000C0362             B       .S2     B3                ; |78| 
     371 00000318 00008000             NOP             5
     372                               ; BRANCH OCCURS                   ; |78| 
     373                    
     374                    
     375 0000031c                   .sect   ".text"
     376                            .global _Report
     377                    
     378                    ;******************************************************************************
     379                    ;* FUNCTION NAME: _Report                                                     *
     380                    ;*                                                                            *
     381                    ;*   Regs Modified     : A0,A1,A2,A3,A4,A5,A6,A7,A8,A9,B0,B1,B2,B3,B4,B5,B6,  *
     382                    ;*                           B7,B8,B9,SP                                      *
     383                    ;*   Regs Used         : A0,A1,A2,A3,A4,A5,A6,A7,A8,A9,B0,B1,B2,B3,B4,B5,B6,  *
     384                    ;*                           B7,B8,B9,SP                                      *
     385                    ;*   Local Frame Size  : 0 Args + 8 Auto + 4 Save = 12 byte                   *
TMS320C6x COFF Assembler         Version 4.10     Wed May 08 17:22:45 2024
Copyright (c) 1996-2001 Texas Instruments Incorporated
temp\serial.asm                                                      PAGE    8

     386                    ;******************************************************************************
     387 0000031c           _Report:
     388                    ;** --------------------------------------------------------------------------*
     389 0000031c 00000028!            MVKL    .S1     _strcpy,A0        ; |84| 
     390 00000320 00000068!            MVKH    .S1     _strcpy,A0        ; |84| 
     391 00000324 00001362             B       .S2X    A0                ; |84| 
     392 00000328 0200E02A-            MVKL    .S2     _tmp_string,B4    ; |84| 
     393 0000032c 01BC94F6             STW     .D2T2   B3,*SP--(16)      ; |81| 
     394 00000330 0181A42A'            MVKL    .S2     RL8,B3            ; |84| 
     395                    
     396 00000334 0200006B-            MVKH    .S2     _tmp_string,B4    ; |84| 
     397 00000338 02007628- ||         MVKL    .S1     _respacket,A4     ; |84| 
     398                    
     399 00000340 0180006B'            MVKH    .S2     RL8,B3            ; |84| 
     400 00000344 02000068- ||         MVKH    .S1     _respacket,A4     ; |84| 
     401                    
     402 00000348           RL8:       ; CALL OCCURS                     ; |84| 
     403 00000348 0200002A!            MVKL    .S2     _strlen,B4        ; |86| 
     404 0000034c 0200006A!            MVKH    .S2     _strlen,B4        ; |86| 
     405 00000350 00100362             B       .S2     B4                ; |86| 
     406 00000354 02007628-            MVKL    .S1     _respacket,A4     ; |86| 
     407 00000358 0181B62A'            MVKL    .S2     RL10,B3           ; |86| 
     408 0000035c 028008C2             ZERO    .D2     B5                ; |86| 
     409 00000360 02BC22F6             STW     .D2T2   B5,*+SP(4)        ; |86| 
     410                    
     411 00000364 02000069-            MVKH    .S1     _respacket,A4     ; |86| 
     412 00000368 0180006A' ||         MVKH    .S2     RL10,B3           ; |86| 
     413                    
     414 0000036c           RL10:      ; CALL OCCURS                     ; |86| 
     415 0000036c 023C22E6             LDW     .D2T2   *+SP(4),B4        ; |86| 
     416 00000370 00006000             NOP             4
     417 00000374 00109BFA             CMPLTU  .L2X    B4,A4,B0          ; |86| 
     418 00000378 30001F90     [!B0]   B       .S1     L8                ; |86| 
     419 0000037c 31BC92E6     [!B0]   LDW     .D2T2   *++SP(16),B3      ; |90| 
     420 00000380 22BC22E6     [ B0]   LDW     .D2T2   *+SP(4),B5        ; |87| 
     421 00000384 20009428'    [ B0]   MVKL    .S1     _SendByte,A0      ; |87| 
     422 00000388 2200762A-    [ B0]   MVKL    .S2     _respacket,B4     ; |87| 
     423                    
     424 0000038c 20000069'    [ B0]   MVKH    .S1     _SendByte,A0      ; |87| 
     425 00000390 2200006A- || [ B0]   MVKH    .S2     _respacket,B4     ; |87| 
     426                    
     427                               ; BRANCH OCCURS                   ; |86| 
     428                    ;** --------------------------------------------------------------------------*
     429                    ;**   BEGIN LOOP L5
     430                    ;** --------------------------------------------------------------------------*
     431 00000394           L5:    
     432 00000394 00001362             B       .S2X    A0                ; |87| 
     433 00000398 02148AA4             LDB     .D2T1   *+B5[B4],A4       ; |87| 
     434 0000039c 0181D42A'            MVKL    .S2     RL12,B3           ; |87| 
     435 000003a0 0180006A'            MVKH    .S2     RL12,B3           ; |87| 
     436 000003a4 00002000             NOP             2
     437 000003a8           RL12:      ; CALL OCCURS                     ; |87| 
     438 000003a8 020008C2             ZERO    .D2     B4                ; |88| 
     439                    
     440 000003ac 0210077B             INTDPU  .L2     B4,B5:B4          ; |88| 
TMS320C6x COFF Assembler         Version 4.10     Wed May 08 17:22:45 2024
Copyright (c) 1996-2001 Texas Instruments Incorporated
temp\serial.asm                                                      PAGE    9

     441 000003b0 023C42F6  ||         STW     .D2T2   B4,*+SP(8)        ; |88| 
     442                    
     443 000003b4 00A00028             MVKL    .S1     0x407f4000,A1     ; |88| 
     444 000003b8 00A03FE8             MVKH    .S1     0x407f4000,A1     ; |88| 
     445 000003bc 000008C0             ZERO    .D1     A0                ; |88| 
     446 000003c0 00000000             NOP             1
     447 000003c4 00901A60             CMPLTDP .S1X    B5:B4,A1:A0,A1    ; |88| 
     448 000003c8 00000000             NOP             1
     449 000003cc 90000910     [!A1]   B       .S1     L7                ; |88| 
     450 000003d0 00006000             NOP             4
     451 000003d4 823C42E6     [ A1]   LDW     .D2T2   *+SP(8),B4        ; |88| 
     452                               ; BRANCH OCCURS                   ; |88| 
     453                    ;*----------------------------------------------------------------------------*
     454                    ;*   SOFTWARE PIPELINE INFORMATION
     455                    ;*      Disqualified loop: software pipelining disabled
     456                    ;*----------------------------------------------------------------------------*
     457 000003d8           L6:    
     458 000003d8 00A00028             MVKL    .S1     0x407f4000,A1     ; |88| 
     459 000003dc 00A03FE8             MVKH    .S1     0x407f4000,A1     ; |88| 
     460 000003e0 00002000             NOP             2
     461 000003e4 02102942             ADD     .D2     1,B4,B4           ; |88| 
     462                    
     463 000003e8 0210077B             INTDPU  .L2     B4,B5:B4          ; |88| 
     464 000003ec 023C42F6  ||         STW     .D2T2   B4,*+SP(8)        ; |88| 
     465                    
     466 000003f0 00006000             NOP             4
     467 000003f4 00901A60             CMPLTDP .S1X    B5:B4,A1:A0,A1    ; |88| 
     468 000003f8 00000000             NOP             1
     469 000003fc 8FFFFF10     [ A1]   B       .S1     L6                ; |88| 
     470 00000400 00006000             NOP             4
     471 00000404 823C42E6     [ A1]   LDW     .D2T2   *+SP(8),B4        ; |88| 
     472                               ; BRANCH OCCURS                   ; |88| 
     473                    ;** --------------------------------------------------------------------------*
     474 00000408           L7:    
     475 00000408 0200002A!            MVKL    .S2     _strlen,B4        ; |89| 
     476                    
     477 0000040c 02BC22E7             LDW     .D2T2   *+SP(4),B5        ; |89| 
     478 00000410 0200006A! ||         MVKH    .S2     _strlen,B4        ; |89| 
     479                    
     480 00000414 00100362             B       .S2     B4                ; |89| 
     481 00000418 0182182A'            MVKL    .S2     RL14,B3           ; |89| 
     482 0000041c 02007628-            MVKL    .S1     _respacket,A4     ; |89| 
     483 00000420 02000068-            MVKH    .S1     _respacket,A4     ; |89| 
     484 00000424 02942942             ADD     .D2     1,B5,B5           ; |89| 
     485                    
     486 00000428 02BC22F7             STW     .D2T2   B5,*+SP(4)        ; |89| 
     487 0000042c 0180006A' ||         MVKH    .S2     RL14,B3           ; |89| 
     488                    
     489 00000430           RL14:      ; CALL OCCURS                     ; |89| 
     490 00000430 023C22E6             LDW     .D2T2   *+SP(4),B4        ; |89| 
     491 00000434 00006000             NOP             4
     492 00000438 00109BFA             CMPLTU  .L2X    B4,A4,B0          ; |89| 
     493 0000043c 2FFFEE90     [ B0]   B       .S1     L5                ; |89| 
     494 00000440 22BC22E6     [ B0]   LDW     .D2T2   *+SP(4),B5        ; |87| 
     495 00000444 31BC92E6     [!B0]   LDW     .D2T2   *++SP(16),B3      ; |90| 
TMS320C6x COFF Assembler         Version 4.10     Wed May 08 17:22:45 2024
Copyright (c) 1996-2001 Texas Instruments Incorporated
temp\serial.asm                                                      PAGE   10

     496 00000448 20009428'    [ B0]   MVKL    .S1     _SendByte,A0      ; |87| 
     497 0000044c 2200762A-    [ B0]   MVKL    .S2     _respacket,B4     ; |87| 
     498                    
     499 00000450 20000069'    [ B0]   MVKH    .S1     _SendByte,A0      ; |87| 
     500 00000454 2200006A- || [ B0]   MVKH    .S2     _respacket,B4     ; |87| 
     501                    
     502                               ; BRANCH OCCURS                   ; |89| 
     503                    ;** --------------------------------------------------------------------------*
     504 00000458 00000000             NOP             1
     505                    ;** --------------------------------------------------------------------------*
     506 0000045c           L8:    
     507 0000045c 000C0362             B       .S2     B3                ; |90| 
     508 00000460 00008000             NOP             5
     509                               ; BRANCH OCCURS                   ; |90| 
     510                    
     511                    
     512                    ;******************************************************************************
     513                    ;* UNDEFINED EXTERNAL REFERENCES                                              *
     514                    ;******************************************************************************
     515                            .global _strlen
     516                            .global _strcpy
     517                            .global _atoi
     518                            .global __remi

No Assembly Errors, No Assembly Warnings
