******************************************************************************
          TMS320C6x COFF Linker PC Version 4.10                
******************************************************************************
>> Linked Tue May 28 15:53:10 2024

OUTPUT FILE NAME:   <ram_main.out>
ENTRY POINT SYMBOL: "_c_int00"  address: 00006e60


MEMORY CONFIGURATION

                  name            origin    length      used    attr    fill
         ----------------------  --------  ---------  --------  ----  --------
         VECT                    00000000   00000200  00000200  RWIX
         IPRAM                   00000200   0000fe00  00006e80  RWIX
         EXRAM                   00400000   00040000  0000800c  RWIX
         CE1VECS                 01400000   00000200  00000000  RWIX
         CE1MEM                  01400200   0000fe00  00000000  RWIX
         IOCE2                   02000000   00010000  00000000  RWIX
         IDRAM                   80000000   00010000  00002731  RWIX


SECTION ALLOCATION MAP

 output                                  attributes/
section   page    origin      length       input sections
--------  ----  ----------  ----------   ----------------
.vector    0    00000000    00000200     
                  00000000    00000200     initvec.obj (.vector)

.text      0    00000200    00006e80     
                  00000200    000029a0     rts6701.lib : _printfi.obj (.text)
                  00002ba0    00000000                 : ctype.obj (.text)
                  00002ba0    00000000     initvec.obj (.text)
                  00002ba0    00000000     rts6701.lib : sysmem.obj (.text)
                  00002ba0    00000fc0                 : memory.obj (.text)
                  00003b60    00000800     main.obj (.text)
                  00004360    00000720     interrupt.obj (.text)
                  00004a80    00000480     serial.obj (.text)
                  00004f00    00000460     rts6701.lib : imath40.obj (.text)
                  00005360    00000420                 : ecvt.obj (.text)
                  00005780    000003e0                 : fcvt.obj (.text)
                  00005b60    000002e0                 : frcdivd.obj (.text)
                  00005e40    000002a0                 : memcpy.obj (.text)
                  000060e0    00000240                 : exit.obj (.text)
                  00006320    00000220                 : divd.obj (.text)
                  00006540    000001c0                 : sprintf.obj (.text)
                  00006700    000001c0     USBMon.obj (.text)
                  000068c0    00000140     rts6701.lib : atoi.obj (.text)
                  00006a00    00000140                 : ltoa.obj (.text)
                  00006b40    00000100                 : autoinit.obj (.text)
                  00006c40    000000c0                 : divu.obj (.text)
                  00006d00    000000c0                 : fixdli.obj (.text)
                  00006dc0    000000a0                 : remi.obj (.text)
                  00006e60    000000a0                 : boot.obj (.text)
                  00006f00    00000080                 : strcpy.obj (.text)
                  00006f80    00000060                 : memccpy.obj (.text)
                  00006fe0    00000060                 : strlen.obj (.text)
                  00007040    00000040                 : _lock.obj (.text)

.cinit     0    80000000    000000f4     
                  80000000    0000004c     interrupt.obj (.cinit)
                  8000004c    00000004     --HOLE-- [fill = 00000000]
                  80000050    0000002c     rts6701.lib : exit.obj (.cinit)
                  8000007c    00000004     --HOLE-- [fill = 00000000]
                  80000080    0000001c                 : sysmem.obj (.cinit)
                  8000009c    00000004     --HOLE-- [fill = 00000000]
                  800000a0    0000001c                 : _lock.obj (.cinit)
                  800000bc    00000004     --HOLE-- [fill = 00000000]
                  800000c0    0000001c     main.obj (.cinit)
                  800000dc    00000004     --HOLE-- [fill = 00000000]
                  800000e0    0000000c     rts6701.lib : memory.obj (.cinit)
                  800000ec    00000008     --HOLE-- [fill = 00000000]

.const     0    800000f4    000001a9     
                  800000f4    00000101     rts6701.lib : ctype.obj (.const)
                  800001f5    0000007e     main.obj (.const)
                  80000273    0000002a     rts6701.lib : _printfi.obj (.const)

.switch    0    80000000    00000000     UNINITIALIZED

.bss       0    80000000    00000000     UNINITIALIZED
                  80000000    00000000     initvec.obj (.bss)
                  80000000    00000000     rts6701.lib : sysmem.obj (.bss)
                  80000000    00000000                 : memory.obj (.bss)
                  80000000    00000000                 : memcpy.obj (.bss)
                  80000000    00000000                 : memccpy.obj (.bss)
                  80000000    00000000                 : ltoa.obj (.bss)
                  80000000    00000000                 : imath40.obj (.bss)
                  80000000    00000000                 : fixdli.obj (.bss)
                  80000000    00000000                 : fcvt.obj (.bss)
                  80000000    00000000                 : ecvt.obj (.bss)
                  80000000    00000000                 : divu.obj (.bss)
                  80000000    00000000                 : autoinit.obj (.bss)
                  80000000    00000000                 : _printfi.obj (.bss)
                  80000000    00000000                 : _lock.obj (.bss)
                  80000000    00000000                 : strlen.obj (.bss)
                  80000000    00000000                 : strcpy.obj (.bss)
                  80000000    00000000                 : sprintf.obj (.bss)
                  80000000    00000000                 : remi.obj (.bss)
                  80000000    00000000                 : frcdivd.obj (.bss)
                  80000000    00000000                 : exit.obj (.bss)
                  80000000    00000000                 : divd.obj (.bss)
                  80000000    00000000                 : ctype.obj (.bss)
                  80000000    00000000                 : boot.obj (.bss)
                  80000000    00000000                 : atoi.obj (.bss)
                  80000000    00000000     USBMon.obj (.bss)
                  80000000    00000000     serial.obj (.bss)
                  80000000    00000000     interrupt.obj (.bss)
                  80000000    00000000     main.obj (.bss)

.cio       0    80000000    00000000     UNINITIALIZED

.data      0    80000000    00000000     UNINITIALIZED
                  80000000    00000000     initvec.obj (.data)
                  80000000    00000000     rts6701.lib : sysmem.obj (.data)
                  80000000    00000000                 : memory.obj (.data)
                  80000000    00000000                 : memcpy.obj (.data)
                  80000000    00000000                 : memccpy.obj (.data)
                  80000000    00000000                 : ltoa.obj (.data)
                  80000000    00000000                 : imath40.obj (.data)
                  80000000    00000000                 : fixdli.obj (.data)
                  80000000    00000000                 : fcvt.obj (.data)
                  80000000    00000000                 : ecvt.obj (.data)
                  80000000    00000000                 : divu.obj (.data)
                  80000000    00000000                 : autoinit.obj (.data)
                  80000000    00000000                 : _printfi.obj (.data)
                  80000000    00000000                 : _lock.obj (.data)
                  80000000    00000000                 : strlen.obj (.data)
                  80000000    00000000                 : strcpy.obj (.data)
                  80000000    00000000                 : sprintf.obj (.data)
                  80000000    00000000                 : remi.obj (.data)
                  80000000    00000000                 : frcdivd.obj (.data)
                  80000000    00000000                 : exit.obj (.data)
                  80000000    00000000                 : divd.obj (.data)
                  80000000    00000000                 : ctype.obj (.data)
                  80000000    00000000                 : boot.obj (.data)
                  80000000    00000000                 : atoi.obj (.data)
                  80000000    00000000     USBMon.obj (.data)
                  80000000    00000000     serial.obj (.data)
                  80000000    00000000     interrupt.obj (.data)
                  80000000    00000000     main.obj (.data)

.far       0    800002a0    00000494     UNINITIALIZED
                  800002a0    00000288     serial.obj (.far)
                  80000528    0000008c     rts6701.lib : exit.obj (.far)
                  800005b4    00000080                 : _printfi.obj (.far)
                  80000634    00000064                 : ecvt.obj (.far)
                  80000698    00000064                 : fcvt.obj (.far)
                  800006fc    00000014     interrupt.obj (.far)
                  80000710    00000010     main.obj (.far)
                  80000720    00000008     rts6701.lib : memory.obj (.far)
                  80000728    00000008                 : _lock.obj (.far)
                  80000730    00000004                 : sprintf.obj (.far)

.stack     0    80000738    00001000     UNINITIALIZED
                  80000738    00000000     rts6701.lib : boot.obj (.stack)

.sysmem    0    80001738    00001000     UNINITIALIZED
                  80001738    00000000     rts6701.lib : sysmem.obj (.sysmem)

.USBMON    0    00400000    0000800c     UNINITIALIZED
                  00400000    0000800c     USBMon.obj (.USBMON)


GLOBAL SYMBOLS: SORTED ALPHABETICALLY BY Name 

address    name
--------   ----
80000000   $bss
80000000   .bss
80000000   .data
00000200   .text
00006308   C$$EXIT
00004c10   _CheckSum
00003bf8   _GIE
00003e74   _GetCartPos
00003ef8   _GetPendulumPos
00004380   _ISRNMI
00004360   _ISRextint4
00004368   _ISRextint5
00004388   _ISRextint6
000046e0   _ISRtimer0
00003b60   _InitEXINTF
00003be0   _InitINT
00003ba0   _InitTimer
00004a80   _InitUART
00006700   _InitUSBMon
00003d9c   _PWMOut
8000071c   _R_cart
80000718   _R_pend
00004b8c   _ReceiveByte
00004d9c   _Report
00004ba8   _SendByte
00004d04   _SendData
8000070c   _TFlag
80000710   _TINTCnt
0000673c   _UMAddData
00400000   _USBMonStuff
00003cc4   _WaitTFlag
00003d18   _WaitTFlagCnt
00001000   __STACK_SIZE
00001000   __SYSMEM_SIZE
80000000   ___bss__
80000000   ___cinit__
80000000   ___data__
80000000   ___edata__
80000000   ___end__
00007080   ___etext__
ffffffff   ___pinit__
00000200   ___text__
00006b40   __auto_init
800005ac   __cleanup_ptr
800000f4   __ctypes_
00006320   __divd
00005298   __divli
00006c40   __divu
00004f98   __divul
800005b0   __dtors_ptr
00006d00   __fixdli
00005b60   __frcdivd
80000728   __lock
80000720   __memory_size
00007040   __nop
00000200   __printfi
00007048   __register_lock
0000705c   __register_unlock
00006dc0   __remi
000051f8   __remli
00004f00   __remul
80000738   __stack
80001738   __sys_memory
8000072c   __unlock
00006308   _abort
00006230   _atexit
000068c0   _atoi
00006e60   _c_int00
00004370   _c_int08
00004378   _c_int09
00002f44   _calloc
800002a0   _compacket
00003c64   _delay_ms
00003c0c   _delay_us
00005360   _ecvt
000060e0   _exit
00005780   _fcvt
000033c8   _free
00006a00   _ltoa
00003f7c   _main
00002d7c   _malloc
00003790   _memalign
00006f80   _memccpy
00005e40   _memcpy
00002d14   _minit
80000704   _prevErr_cart
800006fc   _prevErr_pend
00002fec   _realloc
8000038c   _respacket
00006540   _sprintf
00006f00   _strcpy
00006fe0   _strlen
80000708   _sumErr_cart
80000700   _sumErr_pend
80000714   _timerCheckCnt
80000460   _tmp_string
80000000   cinit
80000000   edata
80000000   end
00007080   etext
ffffffff   pinit


GLOBAL SYMBOLS: SORTED BY Symbol Address 

address    name
--------   ----
00000200   .text
00000200   ___text__
00000200   __printfi
00001000   __STACK_SIZE
00001000   __SYSMEM_SIZE
00002d14   _minit
00002d7c   _malloc
00002f44   _calloc
00002fec   _realloc
000033c8   _free
00003790   _memalign
00003b60   _InitEXINTF
00003ba0   _InitTimer
00003be0   _InitINT
00003bf8   _GIE
00003c0c   _delay_us
00003c64   _delay_ms
00003cc4   _WaitTFlag
00003d18   _WaitTFlagCnt
00003d9c   _PWMOut
00003e74   _GetCartPos
00003ef8   _GetPendulumPos
00003f7c   _main
00004360   _ISRextint4
00004368   _ISRextint5
00004370   _c_int08
00004378   _c_int09
00004380   _ISRNMI
00004388   _ISRextint6
000046e0   _ISRtimer0
00004a80   _InitUART
00004b8c   _ReceiveByte
00004ba8   _SendByte
00004c10   _CheckSum
00004d04   _SendData
00004d9c   _Report
00004f00   __remul
00004f98   __divul
000051f8   __remli
00005298   __divli
00005360   _ecvt
00005780   _fcvt
00005b60   __frcdivd
00005e40   _memcpy
000060e0   _exit
00006230   _atexit
00006308   _abort
00006308   C$$EXIT
00006320   __divd
00006540   _sprintf
00006700   _InitUSBMon
0000673c   _UMAddData
000068c0   _atoi
00006a00   _ltoa
00006b40   __auto_init
00006c40   __divu
00006d00   __fixdli
00006dc0   __remi
00006e60   _c_int00
00006f00   _strcpy
00006f80   _memccpy
00006fe0   _strlen
00007040   __nop
00007048   __register_lock
0000705c   __register_unlock
00007080   ___etext__
00007080   etext
00400000   _USBMonStuff
80000000   .data
80000000   .bss
80000000   ___cinit__
80000000   ___bss__
80000000   edata
80000000   end
80000000   $bss
80000000   cinit
80000000   ___end__
80000000   ___edata__
80000000   ___data__
800000f4   __ctypes_
800002a0   _compacket
8000038c   _respacket
80000460   _tmp_string
800005ac   __cleanup_ptr
800005b0   __dtors_ptr
800006fc   _prevErr_pend
80000700   _sumErr_pend
80000704   _prevErr_cart
80000708   _sumErr_cart
8000070c   _TFlag
80000710   _TINTCnt
80000714   _timerCheckCnt
80000718   _R_pend
8000071c   _R_cart
80000720   __memory_size
80000728   __lock
8000072c   __unlock
80000738   __stack
80001738   __sys_memory
ffffffff   pinit
ffffffff   ___pinit__

[101 symbols]
